
RTC.elf:     file format elf32-littlearm

Sections:
Idx Name          Size      VMA       LMA       File off  Algn
  0 .isr_vector   0000010c  08000000  08000000  00010000  2**0
                  CONTENTS, ALLOC, LOAD, READONLY, DATA
  1 .text         000033f8  0800010c  0800010c  0001010c  2**2
                  CONTENTS, ALLOC, LOAD, READONLY, CODE
  2 .rodata       000000a8  08003504  08003504  00013504  2**0
                  CONTENTS, ALLOC, LOAD, READONLY, DATA
  3 .ARM.extab    00000000  080035ac  080035ac  00020084  2**0
                  CONTENTS
  4 .ARM          00000000  080035ac  080035ac  00020084  2**0
                  CONTENTS
  5 .preinit_array 00000000  080035ac  080035ac  00020084  2**0
                  CONTENTS, ALLOC, LOAD, DATA
  6 .init_array   00000004  080035ac  080035ac  000135ac  2**2
                  CONTENTS, ALLOC, LOAD, DATA
  7 .fini_array   00000004  080035b0  080035b0  000135b0  2**2
                  CONTENTS, ALLOC, LOAD, DATA
  8 .data         00000084  20000000  080035b4  00020000  2**2
                  CONTENTS, ALLOC, LOAD, DATA
  9 .bss          0000030c  20000084  08003638  00020084  2**2
                  ALLOC
 10 ._user_heap_stack 00000600  20000390  08003638  00020390  2**0
                  ALLOC
 11 .ARM.attributes 00000029  00000000  00000000  00020084  2**0
                  CONTENTS, READONLY
 12 .comment      00000043  00000000  00000000  000200ad  2**0
                  CONTENTS, READONLY
 13 .debug_frame  00000640  00000000  00000000  000200f0  2**2
                  CONTENTS, READONLY, DEBUGGING, OCTETS

Disassembly of section .text:

0800010c <__do_global_dtors_aux>:
 800010c:	b510      	push	{r4, lr}
 800010e:	4c05      	ldr	r4, [pc, #20]	; (8000124 <__do_global_dtors_aux+0x18>)
 8000110:	7823      	ldrb	r3, [r4, #0]
 8000112:	b933      	cbnz	r3, 8000122 <__do_global_dtors_aux+0x16>
 8000114:	4b04      	ldr	r3, [pc, #16]	; (8000128 <__do_global_dtors_aux+0x1c>)
 8000116:	b113      	cbz	r3, 800011e <__do_global_dtors_aux+0x12>
 8000118:	4804      	ldr	r0, [pc, #16]	; (800012c <__do_global_dtors_aux+0x20>)
 800011a:	f3af 8000 	nop.w
 800011e:	2301      	movs	r3, #1
 8000120:	7023      	strb	r3, [r4, #0]
 8000122:	bd10      	pop	{r4, pc}
 8000124:	20000084 	.word	0x20000084
 8000128:	00000000 	.word	0x00000000
 800012c:	080034ec 	.word	0x080034ec

08000130 <frame_dummy>:
 8000130:	b508      	push	{r3, lr}
 8000132:	4b03      	ldr	r3, [pc, #12]	; (8000140 <frame_dummy+0x10>)
 8000134:	b11b      	cbz	r3, 800013e <frame_dummy+0xe>
 8000136:	4903      	ldr	r1, [pc, #12]	; (8000144 <frame_dummy+0x14>)
 8000138:	4803      	ldr	r0, [pc, #12]	; (8000148 <frame_dummy+0x18>)
 800013a:	f3af 8000 	nop.w
 800013e:	bd08      	pop	{r3, pc}
 8000140:	00000000 	.word	0x00000000
 8000144:	20000088 	.word	0x20000088
 8000148:	080034ec 	.word	0x080034ec

0800014c <strlen>:
 800014c:	4603      	mov	r3, r0
 800014e:	f813 2b01 	ldrb.w	r2, [r3], #1
 8000152:	2a00      	cmp	r2, #0
 8000154:	d1fb      	bne.n	800014e <strlen+0x2>
 8000156:	1a18      	subs	r0, r3, r0
 8000158:	3801      	subs	r0, #1
 800015a:	4770      	bx	lr

0800015c <handleShortPress>:
 800015c:	2201      	movs	r2, #1
 800015e:	b570      	push	{r4, r5, r6, lr}
 8000160:	4605      	mov	r5, r0
 8000162:	2600      	movs	r6, #0
 8000164:	6803      	ldr	r3, [r0, #0]
 8000166:	4813      	ldr	r0, [pc, #76]	; (80001b4 <handleShortPress+0x58>)
 8000168:	72da      	strb	r2, [r3, #11]
 800016a:	f002 f9cf 	bl	800250c <HAL_TIM_Base_Start_IT>
 800016e:	682a      	ldr	r2, [r5, #0]
 8000170:	4c11      	ldr	r4, [pc, #68]	; (80001b8 <handleShortPress+0x5c>)
 8000172:	7216      	strb	r6, [r2, #8]
 8000174:	68e1      	ldr	r1, [r4, #12]
 8000176:	7a93      	ldrb	r3, [r2, #10]
 8000178:	4810      	ldr	r0, [pc, #64]	; (80001bc <handleShortPress+0x60>)
 800017a:	430b      	orrs	r3, r1
 800017c:	60e3      	str	r3, [r4, #12]
 800017e:	68a3      	ldr	r3, [r4, #8]
 8000180:	7a52      	ldrb	r2, [r2, #9]
 8000182:	ea23 0302 	bic.w	r3, r3, r2
 8000186:	2264      	movs	r2, #100	; 0x64
 8000188:	60a3      	str	r3, [r4, #8]
 800018a:	4b0d      	ldr	r3, [pc, #52]	; (80001c0 <handleShortPress+0x64>)
 800018c:	62da      	str	r2, [r3, #44]	; 0x2c
 800018e:	625e      	str	r6, [r3, #36]	; 0x24
 8000190:	f002 f9cc 	bl	800252c <HAL_TIM_Base_Stop_IT>
 8000194:	f44f 7280 	mov.w	r2, #256	; 0x100
 8000198:	4b0a      	ldr	r3, [pc, #40]	; (80001c4 <handleShortPress+0x68>)
 800019a:	2028      	movs	r0, #40	; 0x28
 800019c:	701e      	strb	r6, [r3, #0]
 800019e:	682b      	ldr	r3, [r5, #0]
 80001a0:	881b      	ldrh	r3, [r3, #0]
 80001a2:	6163      	str	r3, [r4, #20]
 80001a4:	4b08      	ldr	r3, [pc, #32]	; (80001c8 <handleShortPress+0x6c>)
 80001a6:	e8bd 4070 	ldmia.w	sp!, {r4, r5, r6, lr}
 80001aa:	f8c3 2184 	str.w	r2, [r3, #388]	; 0x184
 80001ae:	f000 bff7 	b.w	80011a0 <HAL_NVIC_EnableIRQ>
 80001b2:	bf00      	nop
 80001b4:	200001cc 	.word	0x200001cc
 80001b8:	40010400 	.word	0x40010400
 80001bc:	2000018c 	.word	0x2000018c
 80001c0:	40000400 	.word	0x40000400
 80001c4:	200000a2 	.word	0x200000a2
 80001c8:	e000e100 	.word	0xe000e100

080001cc <handleLongPress>:
 80001cc:	2201      	movs	r2, #1
 80001ce:	b570      	push	{r4, r5, r6, lr}
 80001d0:	4605      	mov	r5, r0
 80001d2:	2600      	movs	r6, #0
 80001d4:	6803      	ldr	r3, [r0, #0]
 80001d6:	4812      	ldr	r0, [pc, #72]	; (8000220 <handleLongPress+0x54>)
 80001d8:	731a      	strb	r2, [r3, #12]
 80001da:	f002 f997 	bl	800250c <HAL_TIM_Base_Start_IT>
 80001de:	682a      	ldr	r2, [r5, #0]
 80001e0:	4c10      	ldr	r4, [pc, #64]	; (8000224 <handleLongPress+0x58>)
 80001e2:	7216      	strb	r6, [r2, #8]
 80001e4:	68e1      	ldr	r1, [r4, #12]
 80001e6:	7a93      	ldrb	r3, [r2, #10]
 80001e8:	480f      	ldr	r0, [pc, #60]	; (8000228 <handleLongPress+0x5c>)
 80001ea:	430b      	orrs	r3, r1
 80001ec:	60e3      	str	r3, [r4, #12]
 80001ee:	68a3      	ldr	r3, [r4, #8]
 80001f0:	7a52      	ldrb	r2, [r2, #9]
 80001f2:	ea23 0302 	bic.w	r3, r3, r2
 80001f6:	2264      	movs	r2, #100	; 0x64
 80001f8:	60a3      	str	r3, [r4, #8]
 80001fa:	4b0c      	ldr	r3, [pc, #48]	; (800022c <handleLongPress+0x60>)
 80001fc:	62da      	str	r2, [r3, #44]	; 0x2c
 80001fe:	f002 f995 	bl	800252c <HAL_TIM_Base_Stop_IT>
 8000202:	f44f 7280 	mov.w	r2, #256	; 0x100
 8000206:	4b0a      	ldr	r3, [pc, #40]	; (8000230 <handleLongPress+0x64>)
 8000208:	2028      	movs	r0, #40	; 0x28
 800020a:	701e      	strb	r6, [r3, #0]
 800020c:	682b      	ldr	r3, [r5, #0]
 800020e:	881b      	ldrh	r3, [r3, #0]
 8000210:	6163      	str	r3, [r4, #20]
 8000212:	4b08      	ldr	r3, [pc, #32]	; (8000234 <handleLongPress+0x68>)
 8000214:	e8bd 4070 	ldmia.w	sp!, {r4, r5, r6, lr}
 8000218:	f8c3 2184 	str.w	r2, [r3, #388]	; 0x184
 800021c:	f000 bfc0 	b.w	80011a0 <HAL_NVIC_EnableIRQ>
 8000220:	200001cc 	.word	0x200001cc
 8000224:	40010400 	.word	0x40010400
 8000228:	2000018c 	.word	0x2000018c
 800022c:	40000400 	.word	0x40000400
 8000230:	200000a2 	.word	0x200000a2
 8000234:	e000e100 	.word	0xe000e100

08000238 <getDataFromButton>:
 8000238:	b537      	push	{r0, r1, r2, r4, r5, lr}
 800023a:	8801      	ldrh	r1, [r0, #0]
 800023c:	9001      	str	r0, [sp, #4]
 800023e:	4604      	mov	r4, r0
 8000240:	6840      	ldr	r0, [r0, #4]
 8000242:	f001 f8bb 	bl	80013bc <HAL_GPIO_ReadPin>
 8000246:	fab0 f080 	clz	r0, r0
 800024a:	4b1d      	ldr	r3, [pc, #116]	; (80002c0 <getDataFromButton+0x88>)
 800024c:	0940      	lsrs	r0, r0, #5
 800024e:	7018      	strb	r0, [r3, #0]
 8000250:	781a      	ldrb	r2, [r3, #0]
 8000252:	4d1c      	ldr	r5, [pc, #112]	; (80002c4 <getDataFromButton+0x8c>)
 8000254:	b302      	cbz	r2, 8000298 <getDataFromButton+0x60>
 8000256:	7a22      	ldrb	r2, [r4, #8]
 8000258:	f002 01ff 	and.w	r1, r2, #255	; 0xff
 800025c:	b9e2      	cbnz	r2, 8000298 <getDataFromButton+0x60>
 800025e:	2301      	movs	r3, #1
 8000260:	7223      	strb	r3, [r4, #8]
 8000262:	68eb      	ldr	r3, [r5, #12]
 8000264:	7aa2      	ldrb	r2, [r4, #10]
 8000266:	ea23 0302 	bic.w	r3, r3, r2
 800026a:	60eb      	str	r3, [r5, #12]
 800026c:	68aa      	ldr	r2, [r5, #8]
 800026e:	7a63      	ldrb	r3, [r4, #9]
 8000270:	4313      	orrs	r3, r2
 8000272:	f644 6220 	movw	r2, #20000	; 0x4e20
 8000276:	60ab      	str	r3, [r5, #8]
 8000278:	4b13      	ldr	r3, [pc, #76]	; (80002c8 <getDataFromButton+0x90>)
 800027a:	62da      	str	r2, [r3, #44]	; 0x2c
 800027c:	7321      	strb	r1, [r4, #12]
 800027e:	f44f 7280 	mov.w	r2, #256	; 0x100
 8000282:	9b01      	ldr	r3, [sp, #4]
 8000284:	2028      	movs	r0, #40	; 0x28
 8000286:	881b      	ldrh	r3, [r3, #0]
 8000288:	616b      	str	r3, [r5, #20]
 800028a:	4b10      	ldr	r3, [pc, #64]	; (80002cc <getDataFromButton+0x94>)
 800028c:	f8c3 2184 	str.w	r2, [r3, #388]	; 0x184
 8000290:	f000 ff86 	bl	80011a0 <HAL_NVIC_EnableIRQ>
 8000294:	b003      	add	sp, #12
 8000296:	bd30      	pop	{r4, r5, pc}
 8000298:	781a      	ldrb	r2, [r3, #0]
 800029a:	b932      	cbnz	r2, 80002aa <getDataFromButton+0x72>
 800029c:	7a22      	ldrb	r2, [r4, #8]
 800029e:	f002 01ff 	and.w	r1, r2, #255	; 0xff
 80002a2:	b912      	cbnz	r2, 80002aa <getDataFromButton+0x72>
 80002a4:	4b0a      	ldr	r3, [pc, #40]	; (80002d0 <getDataFromButton+0x98>)
 80002a6:	7019      	strb	r1, [r3, #0]
 80002a8:	e7e9      	b.n	800027e <getDataFromButton+0x46>
 80002aa:	781b      	ldrb	r3, [r3, #0]
 80002ac:	2b00      	cmp	r3, #0
 80002ae:	d0e6      	beq.n	800027e <getDataFromButton+0x46>
 80002b0:	7a23      	ldrb	r3, [r4, #8]
 80002b2:	2b00      	cmp	r3, #0
 80002b4:	d0e3      	beq.n	800027e <getDataFromButton+0x46>
 80002b6:	a801      	add	r0, sp, #4
 80002b8:	f7ff ff88 	bl	80001cc <handleLongPress>
 80002bc:	e7df      	b.n	800027e <getDataFromButton+0x46>
 80002be:	bf00      	nop
 80002c0:	200000a0 	.word	0x200000a0
 80002c4:	40010400 	.word	0x40010400
 80002c8:	40000400 	.word	0x40000400
 80002cc:	e000e100 	.word	0xe000e100
 80002d0:	200000a2 	.word	0x200000a2

080002d4 <callBackButton>:
 80002d4:	b507      	push	{r0, r1, r2, lr}
 80002d6:	7a03      	ldrb	r3, [r0, #8]
 80002d8:	9001      	str	r0, [sp, #4]
 80002da:	b943      	cbnz	r3, 80002ee <callBackButton+0x1a>
 80002dc:	2028      	movs	r0, #40	; 0x28
 80002de:	f000 ff6d 	bl	80011bc <HAL_NVIC_DisableIRQ>
 80002e2:	4808      	ldr	r0, [pc, #32]	; (8000304 <callBackButton+0x30>)
 80002e4:	f002 f912 	bl	800250c <HAL_TIM_Base_Start_IT>
 80002e8:	b003      	add	sp, #12
 80002ea:	f85d fb04 	ldr.w	pc, [sp], #4
 80002ee:	7a03      	ldrb	r3, [r0, #8]
 80002f0:	2b00      	cmp	r3, #0
 80002f2:	d0f9      	beq.n	80002e8 <callBackButton+0x14>
 80002f4:	2028      	movs	r0, #40	; 0x28
 80002f6:	f000 ff61 	bl	80011bc <HAL_NVIC_DisableIRQ>
 80002fa:	a801      	add	r0, sp, #4
 80002fc:	f7ff ff2e 	bl	800015c <handleShortPress>
 8000300:	e7f2      	b.n	80002e8 <callBackButton+0x14>
 8000302:	bf00      	nop
 8000304:	2000018c 	.word	0x2000018c

08000308 <lcd1602_Send_init_Data>:
 8000308:	b537      	push	{r0, r1, r2, r4, r5, lr}
 800030a:	4a14      	ldr	r2, [pc, #80]	; (800035c <lcd1602_Send_init_Data+0x54>)
 800030c:	4604      	mov	r4, r0
 800030e:	7812      	ldrb	r2, [r2, #0]
 8000310:	7803      	ldrb	r3, [r0, #0]
 8000312:	b302      	cbz	r2, 8000356 <lcd1602_Send_init_Data+0x4e>
 8000314:	f043 0308 	orr.w	r3, r3, #8
 8000318:	250a      	movs	r5, #10
 800031a:	f043 0304 	orr.w	r3, r3, #4
 800031e:	4622      	mov	r2, r4
 8000320:	214e      	movs	r1, #78	; 0x4e
 8000322:	7023      	strb	r3, [r4, #0]
 8000324:	9500      	str	r5, [sp, #0]
 8000326:	2301      	movs	r3, #1
 8000328:	480d      	ldr	r0, [pc, #52]	; (8000360 <lcd1602_Send_init_Data+0x58>)
 800032a:	f001 f9cb 	bl	80016c4 <HAL_I2C_Master_Transmit>
 800032e:	2005      	movs	r0, #5
 8000330:	f000 fee2 	bl	80010f8 <HAL_Delay>
 8000334:	7823      	ldrb	r3, [r4, #0]
 8000336:	4622      	mov	r2, r4
 8000338:	f023 0304 	bic.w	r3, r3, #4
 800033c:	7023      	strb	r3, [r4, #0]
 800033e:	214e      	movs	r1, #78	; 0x4e
 8000340:	2301      	movs	r3, #1
 8000342:	9500      	str	r5, [sp, #0]
 8000344:	4806      	ldr	r0, [pc, #24]	; (8000360 <lcd1602_Send_init_Data+0x58>)
 8000346:	f001 f9bd 	bl	80016c4 <HAL_I2C_Master_Transmit>
 800034a:	2005      	movs	r0, #5
 800034c:	b003      	add	sp, #12
 800034e:	e8bd 4030 	ldmia.w	sp!, {r4, r5, lr}
 8000352:	f000 bed1 	b.w	80010f8 <HAL_Delay>
 8000356:	f003 03f7 	and.w	r3, r3, #247	; 0xf7
 800035a:	e7dd      	b.n	8000318 <lcd1602_Send_init_Data+0x10>
 800035c:	20000000 	.word	0x20000000
 8000360:	200000a4 	.word	0x200000a4

08000364 <lcd1602_Send_data>:
 8000364:	b537      	push	{r0, r1, r2, r4, r5, lr}
 8000366:	4a11      	ldr	r2, [pc, #68]	; (80003ac <lcd1602_Send_data+0x48>)
 8000368:	4604      	mov	r4, r0
 800036a:	7812      	ldrb	r2, [r2, #0]
 800036c:	7803      	ldrb	r3, [r0, #0]
 800036e:	b1ca      	cbz	r2, 80003a4 <lcd1602_Send_data+0x40>
 8000370:	f043 0308 	orr.w	r3, r3, #8
 8000374:	250a      	movs	r5, #10
 8000376:	f043 0304 	orr.w	r3, r3, #4
 800037a:	4622      	mov	r2, r4
 800037c:	7023      	strb	r3, [r4, #0]
 800037e:	214e      	movs	r1, #78	; 0x4e
 8000380:	2301      	movs	r3, #1
 8000382:	9500      	str	r5, [sp, #0]
 8000384:	480a      	ldr	r0, [pc, #40]	; (80003b0 <lcd1602_Send_data+0x4c>)
 8000386:	f001 f99d 	bl	80016c4 <HAL_I2C_Master_Transmit>
 800038a:	7823      	ldrb	r3, [r4, #0]
 800038c:	4622      	mov	r2, r4
 800038e:	f023 0304 	bic.w	r3, r3, #4
 8000392:	7023      	strb	r3, [r4, #0]
 8000394:	214e      	movs	r1, #78	; 0x4e
 8000396:	2301      	movs	r3, #1
 8000398:	9500      	str	r5, [sp, #0]
 800039a:	4805      	ldr	r0, [pc, #20]	; (80003b0 <lcd1602_Send_data+0x4c>)
 800039c:	f001 f992 	bl	80016c4 <HAL_I2C_Master_Transmit>
 80003a0:	b003      	add	sp, #12
 80003a2:	bd30      	pop	{r4, r5, pc}
 80003a4:	f003 03f7 	and.w	r3, r3, #247	; 0xf7
 80003a8:	e7e4      	b.n	8000374 <lcd1602_Send_data+0x10>
 80003aa:	bf00      	nop
 80003ac:	20000000 	.word	0x20000000
 80003b0:	200000a4 	.word	0x200000a4

080003b4 <lcd1602_Write_byte>:
 80003b4:	b51f      	push	{r0, r1, r2, r3, r4, lr}
 80003b6:	230a      	movs	r3, #10
 80003b8:	f88d 000f 	strb.w	r0, [sp, #15]
 80003bc:	9300      	str	r3, [sp, #0]
 80003be:	214e      	movs	r1, #78	; 0x4e
 80003c0:	2301      	movs	r3, #1
 80003c2:	f10d 020f 	add.w	r2, sp, #15
 80003c6:	4803      	ldr	r0, [pc, #12]	; (80003d4 <lcd1602_Write_byte+0x20>)
 80003c8:	f001 f97c 	bl	80016c4 <HAL_I2C_Master_Transmit>
 80003cc:	b005      	add	sp, #20
 80003ce:	f85d fb04 	ldr.w	pc, [sp], #4
 80003d2:	bf00      	nop
 80003d4:	200000a4 	.word	0x200000a4

080003d8 <lcd1602_Send_cmd>:
 80003d8:	b538      	push	{r3, r4, r5, lr}
 80003da:	4605      	mov	r5, r0
 80003dc:	4c0a      	ldr	r4, [pc, #40]	; (8000408 <lcd1602_Send_cmd+0x30>)
 80003de:	7823      	ldrb	r3, [r4, #0]
 80003e0:	f043 0004 	orr.w	r0, r3, #4
 80003e4:	7020      	strb	r0, [r4, #0]
 80003e6:	f7ff ffe5 	bl	80003b4 <lcd1602_Write_byte>
 80003ea:	7823      	ldrb	r3, [r4, #0]
 80003ec:	ea43 1005 	orr.w	r0, r3, r5, lsl #4
 80003f0:	b2c0      	uxtb	r0, r0
 80003f2:	f7ff ffdf 	bl	80003b4 <lcd1602_Write_byte>
 80003f6:	7820      	ldrb	r0, [r4, #0]
 80003f8:	f000 00fb 	and.w	r0, r0, #251	; 0xfb
 80003fc:	7020      	strb	r0, [r4, #0]
 80003fe:	e8bd 4038 	ldmia.w	sp!, {r3, r4, r5, lr}
 8000402:	f7ff bfd7 	b.w	80003b4 <lcd1602_Write_byte>
 8000406:	bf00      	nop
 8000408:	200000a1 	.word	0x200000a1

0800040c <lcd1602_Init>:
 800040c:	b573      	push	{r0, r1, r4, r5, r6, lr}
 800040e:	2530      	movs	r5, #48	; 0x30
 8000410:	2420      	movs	r4, #32
 8000412:	200f      	movs	r0, #15
 8000414:	f88d 5007 	strb.w	r5, [sp, #7]
 8000418:	f000 fe6e 	bl	80010f8 <HAL_Delay>
 800041c:	f10d 0007 	add.w	r0, sp, #7
 8000420:	f7ff ff72 	bl	8000308 <lcd1602_Send_init_Data>
 8000424:	2005      	movs	r0, #5
 8000426:	f000 fe67 	bl	80010f8 <HAL_Delay>
 800042a:	f10d 0007 	add.w	r0, sp, #7
 800042e:	f7ff ff6b 	bl	8000308 <lcd1602_Send_init_Data>
 8000432:	2001      	movs	r0, #1
 8000434:	f000 fe60 	bl	80010f8 <HAL_Delay>
 8000438:	f10d 0007 	add.w	r0, sp, #7
 800043c:	f7ff ff64 	bl	8000308 <lcd1602_Send_init_Data>
 8000440:	2680      	movs	r6, #128	; 0x80
 8000442:	f10d 0007 	add.w	r0, sp, #7
 8000446:	f88d 4007 	strb.w	r4, [sp, #7]
 800044a:	f7ff ff5d 	bl	8000308 <lcd1602_Send_init_Data>
 800044e:	f88d 4007 	strb.w	r4, [sp, #7]
 8000452:	2400      	movs	r4, #0
 8000454:	f10d 0007 	add.w	r0, sp, #7
 8000458:	f7ff ff56 	bl	8000308 <lcd1602_Send_init_Data>
 800045c:	f10d 0007 	add.w	r0, sp, #7
 8000460:	f88d 6007 	strb.w	r6, [sp, #7]
 8000464:	f7ff ff50 	bl	8000308 <lcd1602_Send_init_Data>
 8000468:	f10d 0007 	add.w	r0, sp, #7
 800046c:	f88d 4007 	strb.w	r4, [sp, #7]
 8000470:	f7ff ff4a 	bl	8000308 <lcd1602_Send_init_Data>
 8000474:	f10d 0007 	add.w	r0, sp, #7
 8000478:	f88d 6007 	strb.w	r6, [sp, #7]
 800047c:	f7ff ff44 	bl	8000308 <lcd1602_Send_init_Data>
 8000480:	f10d 0007 	add.w	r0, sp, #7
 8000484:	f88d 4007 	strb.w	r4, [sp, #7]
 8000488:	f7ff ff3e 	bl	8000308 <lcd1602_Send_init_Data>
 800048c:	2310      	movs	r3, #16
 800048e:	f10d 0007 	add.w	r0, sp, #7
 8000492:	f88d 3007 	strb.w	r3, [sp, #7]
 8000496:	f7ff ff37 	bl	8000308 <lcd1602_Send_init_Data>
 800049a:	f10d 0007 	add.w	r0, sp, #7
 800049e:	f88d 4007 	strb.w	r4, [sp, #7]
 80004a2:	f7ff ff31 	bl	8000308 <lcd1602_Send_init_Data>
 80004a6:	f10d 0007 	add.w	r0, sp, #7
 80004aa:	f88d 5007 	strb.w	r5, [sp, #7]
 80004ae:	f7ff ff2b 	bl	8000308 <lcd1602_Send_init_Data>
 80004b2:	f10d 0007 	add.w	r0, sp, #7
 80004b6:	f88d 4007 	strb.w	r4, [sp, #7]
 80004ba:	f7ff ff25 	bl	8000308 <lcd1602_Send_init_Data>
 80004be:	23c0      	movs	r3, #192	; 0xc0
 80004c0:	f10d 0007 	add.w	r0, sp, #7
 80004c4:	f88d 3007 	strb.w	r3, [sp, #7]
 80004c8:	f7ff ff1e 	bl	8000308 <lcd1602_Send_init_Data>
 80004cc:	b002      	add	sp, #8
 80004ce:	bd70      	pop	{r4, r5, r6, pc}

080004d0 <lcd1602_Print_symbol>:
 80004d0:	b513      	push	{r0, r1, r4, lr}
 80004d2:	4604      	mov	r4, r0
 80004d4:	f020 030f 	bic.w	r3, r0, #15
 80004d8:	f043 0309 	orr.w	r3, r3, #9
 80004dc:	f10d 0007 	add.w	r0, sp, #7
 80004e0:	0124      	lsls	r4, r4, #4
 80004e2:	f88d 3007 	strb.w	r3, [sp, #7]
 80004e6:	f044 0409 	orr.w	r4, r4, #9
 80004ea:	f7ff ff3b 	bl	8000364 <lcd1602_Send_data>
 80004ee:	f10d 0007 	add.w	r0, sp, #7
 80004f2:	f88d 4007 	strb.w	r4, [sp, #7]
 80004f6:	f7ff ff35 	bl	8000364 <lcd1602_Send_data>
 80004fa:	b002      	add	sp, #8
 80004fc:	bd10      	pop	{r4, pc}

080004fe <lcd1602_Print_text>:
 80004fe:	b538      	push	{r3, r4, r5, lr}
 8000500:	4605      	mov	r5, r0
 8000502:	2400      	movs	r4, #0
 8000504:	4628      	mov	r0, r5
 8000506:	f7ff fe21 	bl	800014c <strlen>
 800050a:	42a0      	cmp	r0, r4
 800050c:	d800      	bhi.n	8000510 <lcd1602_Print_text+0x12>
 800050e:	bd38      	pop	{r3, r4, r5, pc}
 8000510:	5d28      	ldrb	r0, [r5, r4]
 8000512:	f7ff ffdd 	bl	80004d0 <lcd1602_Print_symbol>
 8000516:	3401      	adds	r4, #1
 8000518:	e7f4      	b.n	8000504 <lcd1602_Print_text+0x6>

0800051a <lcd1602_SetCursor>:
 800051a:	2827      	cmp	r0, #39	; 0x27
 800051c:	b513      	push	{r0, r1, r4, lr}
 800051e:	bf28      	it	cs
 8000520:	2027      	movcs	r0, #39	; 0x27
 8000522:	4604      	mov	r4, r0
 8000524:	b139      	cbz	r1, 8000536 <lcd1602_SetCursor+0x1c>
 8000526:	2901      	cmp	r1, #1
 8000528:	d003      	beq.n	8000532 <lcd1602_SetCursor+0x18>
 800052a:	2902      	cmp	r1, #2
 800052c:	d016      	beq.n	800055c <lcd1602_SetCursor+0x42>
 800052e:	3454      	adds	r4, #84	; 0x54
 8000530:	e000      	b.n	8000534 <lcd1602_SetCursor+0x1a>
 8000532:	3440      	adds	r4, #64	; 0x40
 8000534:	b2e4      	uxtb	r4, r4
 8000536:	f004 0370 	and.w	r3, r4, #112	; 0x70
 800053a:	f063 037f 	orn	r3, r3, #127	; 0x7f
 800053e:	f10d 0007 	add.w	r0, sp, #7
 8000542:	f88d 3007 	strb.w	r3, [sp, #7]
 8000546:	0124      	lsls	r4, r4, #4
 8000548:	f7ff ff0c 	bl	8000364 <lcd1602_Send_data>
 800054c:	f10d 0007 	add.w	r0, sp, #7
 8000550:	f88d 4007 	strb.w	r4, [sp, #7]
 8000554:	f7ff ff06 	bl	8000364 <lcd1602_Send_data>
 8000558:	b002      	add	sp, #8
 800055a:	bd10      	pop	{r4, pc}
 800055c:	3414      	adds	r4, #20
 800055e:	e7e9      	b.n	8000534 <lcd1602_SetCursor+0x1a>

08000560 <lcd1602_Create_symbol>:
 8000560:	b5f8      	push	{r3, r4, r5, r6, r7, lr}
 8000562:	4e12      	ldr	r6, [pc, #72]	; (80005ac <lcd1602_Create_symbol+0x4c>)
 8000564:	00cc      	lsls	r4, r1, #3
 8000566:	4605      	mov	r5, r0
 8000568:	7830      	ldrb	r0, [r6, #0]
 800056a:	f044 0440 	orr.w	r4, r4, #64	; 0x40
 800056e:	b2e4      	uxtb	r4, r4
 8000570:	f000 00fe 	and.w	r0, r0, #254	; 0xfe
 8000574:	7030      	strb	r0, [r6, #0]
 8000576:	f7ff ff1d 	bl	80003b4 <lcd1602_Write_byte>
 800057a:	0920      	lsrs	r0, r4, #4
 800057c:	f7ff ff2c 	bl	80003d8 <lcd1602_Send_cmd>
 8000580:	4620      	mov	r0, r4
 8000582:	f7ff ff29 	bl	80003d8 <lcd1602_Send_cmd>
 8000586:	1e6c      	subs	r4, r5, #1
 8000588:	3507      	adds	r5, #7
 800058a:	7830      	ldrb	r0, [r6, #0]
 800058c:	f814 7f01 	ldrb.w	r7, [r4, #1]!
 8000590:	f040 0001 	orr.w	r0, r0, #1
 8000594:	7030      	strb	r0, [r6, #0]
 8000596:	f7ff ff0d 	bl	80003b4 <lcd1602_Write_byte>
 800059a:	0938      	lsrs	r0, r7, #4
 800059c:	f7ff ff1c 	bl	80003d8 <lcd1602_Send_cmd>
 80005a0:	4638      	mov	r0, r7
 80005a2:	f7ff ff19 	bl	80003d8 <lcd1602_Send_cmd>
 80005a6:	42ac      	cmp	r4, r5
 80005a8:	d1ef      	bne.n	800058a <lcd1602_Create_symbol+0x2a>
 80005aa:	bdf8      	pop	{r3, r4, r5, r6, r7, pc}
 80005ac:	200000a1 	.word	0x200000a1

080005b0 <lcd1602_Clean>:
 80005b0:	2300      	movs	r3, #0
 80005b2:	b507      	push	{r0, r1, r2, lr}
 80005b4:	f10d 0007 	add.w	r0, sp, #7
 80005b8:	f88d 3007 	strb.w	r3, [sp, #7]
 80005bc:	f7ff fea4 	bl	8000308 <lcd1602_Send_init_Data>
 80005c0:	2310      	movs	r3, #16
 80005c2:	f10d 0007 	add.w	r0, sp, #7
 80005c6:	f88d 3007 	strb.w	r3, [sp, #7]
 80005ca:	f7ff fe9d 	bl	8000308 <lcd1602_Send_init_Data>
 80005ce:	b003      	add	sp, #12
 80005d0:	f85d fb04 	ldr.w	pc, [sp], #4

080005d4 <HAL_RTCEx_RTCEventCallback>:
 80005d4:	b510      	push	{r4, lr}
 80005d6:	4c05      	ldr	r4, [pc, #20]	; (80005ec <HAL_RTCEx_RTCEventCallback+0x18>)
 80005d8:	2200      	movs	r2, #0
 80005da:	4621      	mov	r1, r4
 80005dc:	f001 fdcc 	bl	8002178 <HAL_RTC_GetTime>
 80005e0:	78a3      	ldrb	r3, [r4, #2]
 80005e2:	b913      	cbnz	r3, 80005ea <HAL_RTCEx_RTCEventCallback+0x16>
 80005e4:	2201      	movs	r2, #1
 80005e6:	4b02      	ldr	r3, [pc, #8]	; (80005f0 <HAL_RTCEx_RTCEventCallback+0x1c>)
 80005e8:	701a      	strb	r2, [r3, #0]
 80005ea:	bd10      	pop	{r4, pc}
 80005ec:	20000210 	.word	0x20000210
 80005f0:	20000024 	.word	0x20000024

080005f4 <HAL_GPIO_EXTI_Callback>:
 80005f4:	2802      	cmp	r0, #2
 80005f6:	d105      	bne.n	8000604 <HAL_GPIO_EXTI_Callback+0x10>
 80005f8:	2201      	movs	r2, #1
 80005fa:	4b07      	ldr	r3, [pc, #28]	; (8000618 <HAL_GPIO_EXTI_Callback+0x24>)
 80005fc:	4807      	ldr	r0, [pc, #28]	; (800061c <HAL_GPIO_EXTI_Callback+0x28>)
 80005fe:	701a      	strb	r2, [r3, #0]
 8000600:	f7ff be68 	b.w	80002d4 <callBackButton>
 8000604:	2804      	cmp	r0, #4
 8000606:	d104      	bne.n	8000612 <HAL_GPIO_EXTI_Callback+0x1e>
 8000608:	2202      	movs	r2, #2
 800060a:	4b03      	ldr	r3, [pc, #12]	; (8000618 <HAL_GPIO_EXTI_Callback+0x24>)
 800060c:	4804      	ldr	r0, [pc, #16]	; (8000620 <HAL_GPIO_EXTI_Callback+0x2c>)
 800060e:	701a      	strb	r2, [r3, #0]
 8000610:	e7f6      	b.n	8000600 <HAL_GPIO_EXTI_Callback+0xc>
 8000612:	bf00      	nop
 8000614:	4770      	bx	lr
 8000616:	bf00      	nop
 8000618:	200000a2 	.word	0x200000a2
 800061c:	20000004 	.word	0x20000004
 8000620:	20000014 	.word	0x20000014

08000624 <SystemClock_Config>:
 8000624:	b530      	push	{r4, r5, lr}
 8000626:	b095      	sub	sp, #84	; 0x54
 8000628:	2214      	movs	r2, #20
 800062a:	2100      	movs	r1, #0
 800062c:	a80c      	add	r0, sp, #48	; 0x30
 800062e:	f002 fac3 	bl	8002bb8 <memset>
 8000632:	2214      	movs	r2, #20
 8000634:	2100      	movs	r1, #0
 8000636:	eb0d 0002 	add.w	r0, sp, r2
 800063a:	f002 fabd 	bl	8002bb8 <memset>
 800063e:	2210      	movs	r2, #16
 8000640:	2100      	movs	r1, #0
 8000642:	a801      	add	r0, sp, #4
 8000644:	f002 fab8 	bl	8002bb8 <memset>
 8000648:	2502      	movs	r5, #2
 800064a:	f44f 3380 	mov.w	r3, #65536	; 0x10000
 800064e:	2205      	movs	r2, #5
 8000650:	2401      	movs	r4, #1
 8000652:	e9cd 230a 	strd	r2, r3, [sp, #40]	; 0x28
 8000656:	e9cd 5311 	strd	r5, r3, [sp, #68]	; 0x44
 800065a:	f44f 13e0 	mov.w	r3, #1835008	; 0x1c0000
 800065e:	a80a      	add	r0, sp, #40	; 0x28
 8000660:	e9cd 440d 	strd	r4, r4, [sp, #52]	; 0x34
 8000664:	9313      	str	r3, [sp, #76]	; 0x4c
 8000666:	f001 f905 	bl	8001874 <HAL_RCC_OscConfig>
 800066a:	b108      	cbz	r0, 8000670 <SystemClock_Config+0x4c>
 800066c:	b672      	cpsid	i
 800066e:	e7fe      	b.n	800066e <SystemClock_Config+0x4a>
 8000670:	230f      	movs	r3, #15
 8000672:	e9cd 3505 	strd	r3, r5, [sp, #20]
 8000676:	2380      	movs	r3, #128	; 0x80
 8000678:	9009      	str	r0, [sp, #36]	; 0x24
 800067a:	e9cd 3007 	strd	r3, r0, [sp, #28]
 800067e:	4629      	mov	r1, r5
 8000680:	a805      	add	r0, sp, #20
 8000682:	f001 facd 	bl	8001c20 <HAL_RCC_ClockConfig>
 8000686:	b108      	cbz	r0, 800068c <SystemClock_Config+0x68>
 8000688:	b672      	cpsid	i
 800068a:	e7fe      	b.n	800068a <SystemClock_Config+0x66>
 800068c:	f44f 7380 	mov.w	r3, #256	; 0x100
 8000690:	a801      	add	r0, sp, #4
 8000692:	9401      	str	r4, [sp, #4]
 8000694:	9302      	str	r3, [sp, #8]
 8000696:	f001 fb7f 	bl	8001d98 <HAL_RCCEx_PeriphCLKConfig>
 800069a:	b108      	cbz	r0, 80006a0 <SystemClock_Config+0x7c>
 800069c:	b672      	cpsid	i
 800069e:	e7fe      	b.n	800069e <SystemClock_Config+0x7a>
 80006a0:	b015      	add	sp, #84	; 0x54
 80006a2:	bd30      	pop	{r4, r5, pc}

080006a4 <main>:
 80006a4:	2400      	movs	r4, #0
 80006a6:	b580      	push	{r7, lr}
 80006a8:	b092      	sub	sp, #72	; 0x48
 80006aa:	f000 fd01 	bl	80010b0 <HAL_Init>
 80006ae:	f7ff ffb9 	bl	8000624 <SystemClock_Config>
 80006b2:	4b97      	ldr	r3, [pc, #604]	; (8000910 <main+0x26c>)
 80006b4:	940e      	str	r4, [sp, #56]	; 0x38
 80006b6:	699a      	ldr	r2, [r3, #24]
 80006b8:	f04f 0c06 	mov.w	ip, #6
 80006bc:	f042 0210 	orr.w	r2, r2, #16
 80006c0:	619a      	str	r2, [r3, #24]
 80006c2:	699a      	ldr	r2, [r3, #24]
 80006c4:	4893      	ldr	r0, [pc, #588]	; (8000914 <main+0x270>)
 80006c6:	f002 0210 	and.w	r2, r2, #16
 80006ca:	9201      	str	r2, [sp, #4]
 80006cc:	9a01      	ldr	r2, [sp, #4]
 80006ce:	699a      	ldr	r2, [r3, #24]
 80006d0:	a90b      	add	r1, sp, #44	; 0x2c
 80006d2:	f042 0220 	orr.w	r2, r2, #32
 80006d6:	619a      	str	r2, [r3, #24]
 80006d8:	699a      	ldr	r2, [r3, #24]
 80006da:	f002 0220 	and.w	r2, r2, #32
 80006de:	9202      	str	r2, [sp, #8]
 80006e0:	9a02      	ldr	r2, [sp, #8]
 80006e2:	699a      	ldr	r2, [r3, #24]
 80006e4:	f042 0204 	orr.w	r2, r2, #4
 80006e8:	619a      	str	r2, [r3, #24]
 80006ea:	699a      	ldr	r2, [r3, #24]
 80006ec:	f002 0204 	and.w	r2, r2, #4
 80006f0:	9203      	str	r2, [sp, #12]
 80006f2:	9a03      	ldr	r2, [sp, #12]
 80006f4:	699a      	ldr	r2, [r3, #24]
 80006f6:	f042 0208 	orr.w	r2, r2, #8
 80006fa:	619a      	str	r2, [r3, #24]
 80006fc:	699b      	ldr	r3, [r3, #24]
 80006fe:	f003 0308 	and.w	r3, r3, #8
 8000702:	9304      	str	r3, [sp, #16]
 8000704:	9b04      	ldr	r3, [sp, #16]
 8000706:	4b84      	ldr	r3, [pc, #528]	; (8000918 <main+0x274>)
 8000708:	e9cd c30b 	strd	ip, r3, [sp, #44]	; 0x2c
 800070c:	2301      	movs	r3, #1
 800070e:	930d      	str	r3, [sp, #52]	; 0x34
 8000710:	f000 fd7a 	bl	8001208 <HAL_GPIO_Init>
 8000714:	4622      	mov	r2, r4
 8000716:	4621      	mov	r1, r4
 8000718:	2007      	movs	r0, #7
 800071a:	f000 fd11 	bl	8001140 <HAL_NVIC_SetPriority>
 800071e:	2007      	movs	r0, #7
 8000720:	f000 fd3e 	bl	80011a0 <HAL_NVIC_EnableIRQ>
 8000724:	4622      	mov	r2, r4
 8000726:	4621      	mov	r1, r4
 8000728:	2008      	movs	r0, #8
 800072a:	f000 fd09 	bl	8001140 <HAL_NVIC_SetPriority>
 800072e:	2008      	movs	r0, #8
 8000730:	f000 fd36 	bl	80011a0 <HAL_NVIC_EnableIRQ>
 8000734:	4879      	ldr	r0, [pc, #484]	; (800091c <main+0x278>)
 8000736:	4b7a      	ldr	r3, [pc, #488]	; (8000920 <main+0x27c>)
 8000738:	f8df e1e8 	ldr.w	lr, [pc, #488]	; 8000924 <main+0x280>
 800073c:	e9c0 4402 	strd	r4, r4, [r0, #8]
 8000740:	e9c0 e300 	strd	lr, r3, [r0]
 8000744:	f44f 4380 	mov.w	r3, #16384	; 0x4000
 8000748:	e9c0 4406 	strd	r4, r4, [r0, #24]
 800074c:	e9c0 3404 	strd	r3, r4, [r0, #16]
 8000750:	6204      	str	r4, [r0, #32]
 8000752:	f000 ff17 	bl	8001584 <HAL_I2C_Init>
 8000756:	b108      	cbz	r0, 800075c <main+0xb8>
 8000758:	b672      	cpsid	i
 800075a:	e7fe      	b.n	800075a <main+0xb6>
 800075c:	f04f 33ff 	mov.w	r3, #4294967295
 8000760:	4871      	ldr	r0, [pc, #452]	; (8000928 <main+0x284>)
 8000762:	4f72      	ldr	r7, [pc, #456]	; (800092c <main+0x288>)
 8000764:	e9c0 7300 	strd	r7, r3, [r0]
 8000768:	f44f 7380 	mov.w	r3, #256	; 0x100
 800076c:	6083      	str	r3, [r0, #8]
 800076e:	f001 fdd9 	bl	8002324 <HAL_RTC_Init>
 8000772:	4605      	mov	r5, r0
 8000774:	b108      	cbz	r0, 800077a <main+0xd6>
 8000776:	b672      	cpsid	i
 8000778:	e7fe      	b.n	8000778 <main+0xd4>
 800077a:	4601      	mov	r1, r0
 800077c:	2210      	movs	r2, #16
 800077e:	a80b      	add	r0, sp, #44	; 0x2c
 8000780:	f002 fa1a 	bl	8002bb8 <memset>
 8000784:	f44f 6361 	mov.w	r3, #3600	; 0xe10
 8000788:	4c69      	ldr	r4, [pc, #420]	; (8000930 <main+0x28c>)
 800078a:	4e6a      	ldr	r6, [pc, #424]	; (8000934 <main+0x290>)
 800078c:	4620      	mov	r0, r4
 800078e:	e9c4 6300 	strd	r6, r3, [r4]
 8000792:	f44f 73fa 	mov.w	r3, #500	; 0x1f4
 8000796:	e9cd 5507 	strd	r5, r5, [sp, #28]
 800079a:	e9c4 3503 	strd	r3, r5, [r4, #12]
 800079e:	60a5      	str	r5, [r4, #8]
 80007a0:	61a5      	str	r5, [r4, #24]
 80007a2:	f001 ffb7 	bl	8002714 <HAL_TIM_Base_Init>
 80007a6:	b108      	cbz	r0, 80007ac <main+0x108>
 80007a8:	b672      	cpsid	i
 80007aa:	e7fe      	b.n	80007aa <main+0x106>
 80007ac:	f44f 5780 	mov.w	r7, #4096	; 0x1000
 80007b0:	4620      	mov	r0, r4
 80007b2:	a90b      	add	r1, sp, #44	; 0x2c
 80007b4:	970b      	str	r7, [sp, #44]	; 0x2c
 80007b6:	f002 f873 	bl	80028a0 <HAL_TIM_ConfigClockSource>
 80007ba:	b108      	cbz	r0, 80007c0 <main+0x11c>
 80007bc:	b672      	cpsid	i
 80007be:	e7fe      	b.n	80007be <main+0x11a>
 80007c0:	e9cd 0007 	strd	r0, r0, [sp, #28]
 80007c4:	a907      	add	r1, sp, #28
 80007c6:	4620      	mov	r0, r4
 80007c8:	f002 f982 	bl	8002ad0 <HAL_TIMEx_MasterConfigSynchronization>
 80007cc:	4605      	mov	r5, r0
 80007ce:	b108      	cbz	r0, 80007d4 <main+0x130>
 80007d0:	b672      	cpsid	i
 80007d2:	e7fe      	b.n	80007d2 <main+0x12e>
 80007d4:	4601      	mov	r1, r0
 80007d6:	2210      	movs	r2, #16
 80007d8:	a80b      	add	r0, sp, #44	; 0x2c
 80007da:	f002 f9ed 	bl	8002bb8 <memset>
 80007de:	f648 43a0 	movw	r3, #36000	; 0x8ca0
 80007e2:	4c55      	ldr	r4, [pc, #340]	; (8000938 <main+0x294>)
 80007e4:	4855      	ldr	r0, [pc, #340]	; (800093c <main+0x298>)
 80007e6:	e9cd 5507 	strd	r5, r5, [sp, #28]
 80007ea:	e9c4 0300 	strd	r0, r3, [r4]
 80007ee:	23fa      	movs	r3, #250	; 0xfa
 80007f0:	4620      	mov	r0, r4
 80007f2:	e9c4 3503 	strd	r3, r5, [r4, #12]
 80007f6:	e9c4 5505 	strd	r5, r5, [r4, #20]
 80007fa:	60a5      	str	r5, [r4, #8]
 80007fc:	f001 ff8a 	bl	8002714 <HAL_TIM_Base_Init>
 8000800:	b108      	cbz	r0, 8000806 <main+0x162>
 8000802:	b672      	cpsid	i
 8000804:	e7fe      	b.n	8000804 <main+0x160>
 8000806:	4620      	mov	r0, r4
 8000808:	a90b      	add	r1, sp, #44	; 0x2c
 800080a:	970b      	str	r7, [sp, #44]	; 0x2c
 800080c:	f002 f848 	bl	80028a0 <HAL_TIM_ConfigClockSource>
 8000810:	b108      	cbz	r0, 8000816 <main+0x172>
 8000812:	b672      	cpsid	i
 8000814:	e7fe      	b.n	8000814 <main+0x170>
 8000816:	e9cd 0007 	strd	r0, r0, [sp, #28]
 800081a:	a907      	add	r1, sp, #28
 800081c:	4620      	mov	r0, r4
 800081e:	f002 f957 	bl	8002ad0 <HAL_TIMEx_MasterConfigSynchronization>
 8000822:	4605      	mov	r5, r0
 8000824:	b108      	cbz	r0, 800082a <main+0x186>
 8000826:	b672      	cpsid	i
 8000828:	e7fe      	b.n	8000828 <main+0x184>
 800082a:	4601      	mov	r1, r0
 800082c:	2210      	movs	r2, #16
 800082e:	a807      	add	r0, sp, #28
 8000830:	f002 f9c2 	bl	8002bb8 <memset>
 8000834:	221c      	movs	r2, #28
 8000836:	4629      	mov	r1, r5
 8000838:	a80b      	add	r0, sp, #44	; 0x2c
 800083a:	e9cd 5505 	strd	r5, r5, [sp, #20]
 800083e:	f002 f9bb 	bl	8002bb8 <memset>
 8000842:	f04f 4380 	mov.w	r3, #1073741824	; 0x40000000
 8000846:	4e3e      	ldr	r6, [pc, #248]	; (8000940 <main+0x29c>)
 8000848:	e9c6 3500 	strd	r3, r5, [r6]
 800084c:	f44f 530d 	mov.w	r3, #9024	; 0x2340
 8000850:	4630      	mov	r0, r6
 8000852:	e9c6 3503 	strd	r3, r5, [r6, #12]
 8000856:	60b5      	str	r5, [r6, #8]
 8000858:	61b5      	str	r5, [r6, #24]
 800085a:	f001 ff5b 	bl	8002714 <HAL_TIM_Base_Init>
 800085e:	b108      	cbz	r0, 8000864 <main+0x1c0>
 8000860:	b672      	cpsid	i
 8000862:	e7fe      	b.n	8000862 <main+0x1be>
 8000864:	4630      	mov	r0, r6
 8000866:	a907      	add	r1, sp, #28
 8000868:	9707      	str	r7, [sp, #28]
 800086a:	f002 f819 	bl	80028a0 <HAL_TIM_ConfigClockSource>
 800086e:	b108      	cbz	r0, 8000874 <main+0x1d0>
 8000870:	b672      	cpsid	i
 8000872:	e7fe      	b.n	8000872 <main+0x1ce>
 8000874:	4832      	ldr	r0, [pc, #200]	; (8000940 <main+0x29c>)
 8000876:	f001 ff67 	bl	8002748 <HAL_TIM_PWM_Init>
 800087a:	b108      	cbz	r0, 8000880 <main+0x1dc>
 800087c:	b672      	cpsid	i
 800087e:	e7fe      	b.n	800087e <main+0x1da>
 8000880:	e9cd 0005 	strd	r0, r0, [sp, #20]
 8000884:	a905      	add	r1, sp, #20
 8000886:	482e      	ldr	r0, [pc, #184]	; (8000940 <main+0x29c>)
 8000888:	f002 f922 	bl	8002ad0 <HAL_TIMEx_MasterConfigSynchronization>
 800088c:	4602      	mov	r2, r0
 800088e:	b108      	cbz	r0, 8000894 <main+0x1f0>
 8000890:	b672      	cpsid	i
 8000892:	e7fe      	b.n	8000892 <main+0x1ee>
 8000894:	2160      	movs	r1, #96	; 0x60
 8000896:	f241 1394 	movw	r3, #4500	; 0x1194
 800089a:	900d      	str	r0, [sp, #52]	; 0x34
 800089c:	e9cd 130b 	strd	r1, r3, [sp, #44]	; 0x2c
 80008a0:	900f      	str	r0, [sp, #60]	; 0x3c
 80008a2:	a90b      	add	r1, sp, #44	; 0x2c
 80008a4:	4826      	ldr	r0, [pc, #152]	; (8000940 <main+0x29c>)
 80008a6:	f001 ff95 	bl	80027d4 <HAL_TIM_PWM_ConfigChannel>
 80008aa:	4606      	mov	r6, r0
 80008ac:	b108      	cbz	r0, 80008b2 <main+0x20e>
 80008ae:	b672      	cpsid	i
 80008b0:	e7fe      	b.n	80008b0 <main+0x20c>
 80008b2:	4823      	ldr	r0, [pc, #140]	; (8000940 <main+0x29c>)
 80008b4:	f000 fae2 	bl	8000e7c <HAL_TIM_MspPostInit>
 80008b8:	2210      	movs	r2, #16
 80008ba:	4631      	mov	r1, r6
 80008bc:	a80b      	add	r0, sp, #44	; 0x2c
 80008be:	f002 f97b 	bl	8002bb8 <memset>
 80008c2:	f648 43a0 	movw	r3, #36000	; 0x8ca0
 80008c6:	4d1f      	ldr	r5, [pc, #124]	; (8000944 <main+0x2a0>)
 80008c8:	4a1f      	ldr	r2, [pc, #124]	; (8000948 <main+0x2a4>)
 80008ca:	4628      	mov	r0, r5
 80008cc:	e9c5 2300 	strd	r2, r3, [r5]
 80008d0:	2332      	movs	r3, #50	; 0x32
 80008d2:	e9cd 6607 	strd	r6, r6, [sp, #28]
 80008d6:	e9c5 3603 	strd	r3, r6, [r5, #12]
 80008da:	60ae      	str	r6, [r5, #8]
 80008dc:	61ae      	str	r6, [r5, #24]
 80008de:	f001 ff19 	bl	8002714 <HAL_TIM_Base_Init>
 80008e2:	b108      	cbz	r0, 80008e8 <main+0x244>
 80008e4:	b672      	cpsid	i
 80008e6:	e7fe      	b.n	80008e6 <main+0x242>
 80008e8:	f44f 5380 	mov.w	r3, #4096	; 0x1000
 80008ec:	4628      	mov	r0, r5
 80008ee:	a90b      	add	r1, sp, #44	; 0x2c
 80008f0:	930b      	str	r3, [sp, #44]	; 0x2c
 80008f2:	f001 ffd5 	bl	80028a0 <HAL_TIM_ConfigClockSource>
 80008f6:	b108      	cbz	r0, 80008fc <main+0x258>
 80008f8:	b672      	cpsid	i
 80008fa:	e7fe      	b.n	80008fa <main+0x256>
 80008fc:	e9cd 0007 	strd	r0, r0, [sp, #28]
 8000900:	a907      	add	r1, sp, #28
 8000902:	4628      	mov	r0, r5
 8000904:	f002 f8e4 	bl	8002ad0 <HAL_TIMEx_MasterConfigSynchronization>
 8000908:	b300      	cbz	r0, 800094c <main+0x2a8>
 800090a:	b672      	cpsid	i
 800090c:	e7fe      	b.n	800090c <main+0x268>
 800090e:	bf00      	nop
 8000910:	40021000 	.word	0x40021000
 8000914:	40010800 	.word	0x40010800
 8000918:	10210000 	.word	0x10210000
 800091c:	200000a4 	.word	0x200000a4
 8000920:	000186a0 	.word	0x000186a0
 8000924:	40005400 	.word	0x40005400
 8000928:	200000f8 	.word	0x200000f8
 800092c:	40002800 	.word	0x40002800
 8000930:	2000018c 	.word	0x2000018c
 8000934:	40000400 	.word	0x40000400
 8000938:	2000010c 	.word	0x2000010c
 800093c:	40012c00 	.word	0x40012c00
 8000940:	2000014c 	.word	0x2000014c
 8000944:	200001cc 	.word	0x200001cc
 8000948:	40000800 	.word	0x40000800
 800094c:	2064      	movs	r0, #100	; 0x64
 800094e:	f000 fbd3 	bl	80010f8 <HAL_Delay>
 8000952:	f7ff fd5b 	bl	800040c <lcd1602_Init>
 8000956:	f000 f91f 	bl	8000b98 <initNewSymbols>
 800095a:	482b      	ldr	r0, [pc, #172]	; (8000a08 <main+0x364>)
 800095c:	f001 fd30 	bl	80023c0 <HAL_RTCEx_SetSecond_IT>
 8000960:	f06f 0201 	mvn.w	r2, #1
 8000964:	6823      	ldr	r3, [r4, #0]
 8000966:	4e29      	ldr	r6, [pc, #164]	; (8000a0c <main+0x368>)
 8000968:	4d29      	ldr	r5, [pc, #164]	; (8000a10 <main+0x36c>)
 800096a:	611a      	str	r2, [r3, #16]
 800096c:	7833      	ldrb	r3, [r6, #0]
 800096e:	4c29      	ldr	r4, [pc, #164]	; (8000a14 <main+0x370>)
 8000970:	b90b      	cbnz	r3, 8000976 <main+0x2d2>
 8000972:	782b      	ldrb	r3, [r5, #0]
 8000974:	b13b      	cbz	r3, 8000986 <main+0x2e2>
 8000976:	4b28      	ldr	r3, [pc, #160]	; (8000a18 <main+0x374>)
 8000978:	781b      	ldrb	r3, [r3, #0]
 800097a:	bb23      	cbnz	r3, 80009c6 <main+0x322>
 800097c:	f000 f8fa 	bl	8000b74 <showMainPage>
 8000980:	2300      	movs	r3, #0
 8000982:	7033      	strb	r3, [r6, #0]
 8000984:	702b      	strb	r3, [r5, #0]
 8000986:	7ae3      	ldrb	r3, [r4, #11]
 8000988:	b193      	cbz	r3, 80009b0 <main+0x30c>
 800098a:	4b24      	ldr	r3, [pc, #144]	; (8000a1c <main+0x378>)
 800098c:	7819      	ldrb	r1, [r3, #0]
 800098e:	b979      	cbnz	r1, 80009b0 <main+0x30c>
 8000990:	4a21      	ldr	r2, [pc, #132]	; (8000a18 <main+0x374>)
 8000992:	7813      	ldrb	r3, [r2, #0]
 8000994:	3301      	adds	r3, #1
 8000996:	b2db      	uxtb	r3, r3
 8000998:	2b02      	cmp	r3, #2
 800099a:	bf98      	it	ls
 800099c:	7013      	strbls	r3, [r2, #0]
 800099e:	f04f 0300 	mov.w	r3, #0
 80009a2:	bf88      	it	hi
 80009a4:	7011      	strbhi	r1, [r2, #0]
 80009a6:	72e3      	strb	r3, [r4, #11]
 80009a8:	f7ff fe02 	bl	80005b0 <lcd1602_Clean>
 80009ac:	2301      	movs	r3, #1
 80009ae:	702b      	strb	r3, [r5, #0]
 80009b0:	7a23      	ldrb	r3, [r4, #8]
 80009b2:	b92b      	cbnz	r3, 80009c0 <main+0x31c>
 80009b4:	4b1a      	ldr	r3, [pc, #104]	; (8000a20 <main+0x37c>)
 80009b6:	7a1b      	ldrb	r3, [r3, #8]
 80009b8:	b913      	cbnz	r3, 80009c0 <main+0x31c>
 80009ba:	7b23      	ldrb	r3, [r4, #12]
 80009bc:	2b00      	cmp	r3, #0
 80009be:	d0d5      	beq.n	800096c <main+0x2c8>
 80009c0:	2301      	movs	r3, #1
 80009c2:	702b      	strb	r3, [r5, #0]
 80009c4:	e7d2      	b.n	800096c <main+0x2c8>
 80009c6:	2b01      	cmp	r3, #1
 80009c8:	d119      	bne.n	80009fe <main+0x35a>
 80009ca:	7b22      	ldrb	r2, [r4, #12]
 80009cc:	4b13      	ldr	r3, [pc, #76]	; (8000a1c <main+0x378>)
 80009ce:	b13a      	cbz	r2, 80009e0 <main+0x33c>
 80009d0:	781a      	ldrb	r2, [r3, #0]
 80009d2:	4914      	ldr	r1, [pc, #80]	; (8000a24 <main+0x380>)
 80009d4:	f082 0201 	eor.w	r2, r2, #1
 80009d8:	701a      	strb	r2, [r3, #0]
 80009da:	2200      	movs	r2, #0
 80009dc:	7322      	strb	r2, [r4, #12]
 80009de:	700a      	strb	r2, [r1, #0]
 80009e0:	781b      	ldrb	r3, [r3, #0]
 80009e2:	b123      	cbz	r3, 80009ee <main+0x34a>
 80009e4:	f000 f96a 	bl	8000cbc <startTim1ForBlinkValue>
 80009e8:	f000 f958 	bl	8000c9c <chooseSettingValue>
 80009ec:	e7c8      	b.n	8000980 <main+0x2dc>
 80009ee:	480e      	ldr	r0, [pc, #56]	; (8000a28 <main+0x384>)
 80009f0:	f001 fd9c 	bl	800252c <HAL_TIM_Base_Stop_IT>
 80009f4:	2101      	movs	r1, #1
 80009f6:	2004      	movs	r0, #4
 80009f8:	f000 f852 	bl	8000aa0 <setTimeMenu>
 80009fc:	e7c0      	b.n	8000980 <main+0x2dc>
 80009fe:	2b02      	cmp	r3, #2
 8000a00:	d1be      	bne.n	8000980 <main+0x2dc>
 8000a02:	f000 f867 	bl	8000ad4 <setAlarmMenu>
 8000a06:	e7bb      	b.n	8000980 <main+0x2dc>
 8000a08:	200000f8 	.word	0x200000f8
 8000a0c:	20000024 	.word	0x20000024
 8000a10:	2000020e 	.word	0x2000020e
 8000a14:	20000004 	.word	0x20000004
 8000a18:	2000020c 	.word	0x2000020c
 8000a1c:	2000020d 	.word	0x2000020d
 8000a20:	20000014 	.word	0x20000014
 8000a24:	20000213 	.word	0x20000213
 8000a28:	2000010c 	.word	0x2000010c

08000a2c <showTime>:
 8000a2c:	b570      	push	{r4, r5, r6, lr}
 8000a2e:	4604      	mov	r4, r0
 8000a30:	460d      	mov	r5, r1
 8000a32:	4e14      	ldr	r6, [pc, #80]	; (8000a84 <showTime+0x58>)
 8000a34:	2200      	movs	r2, #0
 8000a36:	4631      	mov	r1, r6
 8000a38:	4813      	ldr	r0, [pc, #76]	; (8000a88 <showTime+0x5c>)
 8000a3a:	f001 fb9d 	bl	8002178 <HAL_RTC_GetTime>
 8000a3e:	7833      	ldrb	r3, [r6, #0]
 8000a40:	2127      	movs	r1, #39	; 0x27
 8000a42:	2b09      	cmp	r3, #9
 8000a44:	bf94      	ite	ls
 8000a46:	4a11      	ldrls	r2, [pc, #68]	; (8000a8c <showTime+0x60>)
 8000a48:	4a11      	ldrhi	r2, [pc, #68]	; (8000a90 <showTime+0x64>)
 8000a4a:	4812      	ldr	r0, [pc, #72]	; (8000a94 <showTime+0x68>)
 8000a4c:	f002 f860 	bl	8002b10 <sniprintf>
 8000a50:	4629      	mov	r1, r5
 8000a52:	4620      	mov	r0, r4
 8000a54:	f7ff fd61 	bl	800051a <lcd1602_SetCursor>
 8000a58:	480e      	ldr	r0, [pc, #56]	; (8000a94 <showTime+0x68>)
 8000a5a:	f7ff fd50 	bl	80004fe <lcd1602_Print_text>
 8000a5e:	7873      	ldrb	r3, [r6, #1]
 8000a60:	2127      	movs	r1, #39	; 0x27
 8000a62:	2b09      	cmp	r3, #9
 8000a64:	bf94      	ite	ls
 8000a66:	4a0c      	ldrls	r2, [pc, #48]	; (8000a98 <showTime+0x6c>)
 8000a68:	4a0c      	ldrhi	r2, [pc, #48]	; (8000a9c <showTime+0x70>)
 8000a6a:	480a      	ldr	r0, [pc, #40]	; (8000a94 <showTime+0x68>)
 8000a6c:	f002 f850 	bl	8002b10 <sniprintf>
 8000a70:	1ce0      	adds	r0, r4, #3
 8000a72:	4629      	mov	r1, r5
 8000a74:	b2c0      	uxtb	r0, r0
 8000a76:	f7ff fd50 	bl	800051a <lcd1602_SetCursor>
 8000a7a:	e8bd 4070 	ldmia.w	sp!, {r4, r5, r6, lr}
 8000a7e:	4805      	ldr	r0, [pc, #20]	; (8000a94 <showTime+0x68>)
 8000a80:	f7ff bd3d 	b.w	80004fe <lcd1602_Print_text>
 8000a84:	20000210 	.word	0x20000210
 8000a88:	200000f8 	.word	0x200000f8
 8000a8c:	08003504 	.word	0x08003504
 8000a90:	08003505 	.word	0x08003505
 8000a94:	20000214 	.word	0x20000214
 8000a98:	08003509 	.word	0x08003509
 8000a9c:	0800350a 	.word	0x0800350a

08000aa0 <setTimeMenu>:
 8000aa0:	b508      	push	{r3, lr}
 8000aa2:	2100      	movs	r1, #0
 8000aa4:	2002      	movs	r0, #2
 8000aa6:	f7ff fd38 	bl	800051a <lcd1602_SetCursor>
 8000aaa:	4b07      	ldr	r3, [pc, #28]	; (8000ac8 <setTimeMenu+0x28>)
 8000aac:	4907      	ldr	r1, [pc, #28]	; (8000acc <setTimeMenu+0x2c>)
 8000aae:	4618      	mov	r0, r3
 8000ab0:	f002 f8b6 	bl	8002c20 <strcpy>
 8000ab4:	f7ff fd23 	bl	80004fe <lcd1602_Print_text>
 8000ab8:	2101      	movs	r1, #1
 8000aba:	2004      	movs	r0, #4
 8000abc:	f7ff ffb6 	bl	8000a2c <showTime>
 8000ac0:	2201      	movs	r2, #1
 8000ac2:	4b03      	ldr	r3, [pc, #12]	; (8000ad0 <setTimeMenu+0x30>)
 8000ac4:	701a      	strb	r2, [r3, #0]
 8000ac6:	bd08      	pop	{r3, pc}
 8000ac8:	20000214 	.word	0x20000214
 8000acc:	0800350d 	.word	0x0800350d
 8000ad0:	2000020e 	.word	0x2000020e

08000ad4 <setAlarmMenu>:
 8000ad4:	b508      	push	{r3, lr}
 8000ad6:	2100      	movs	r1, #0
 8000ad8:	2002      	movs	r0, #2
 8000ada:	f7ff fd1e 	bl	800051a <lcd1602_SetCursor>
 8000ade:	4b04      	ldr	r3, [pc, #16]	; (8000af0 <setAlarmMenu+0x1c>)
 8000ae0:	4904      	ldr	r1, [pc, #16]	; (8000af4 <setAlarmMenu+0x20>)
 8000ae2:	4618      	mov	r0, r3
 8000ae4:	f002 f89c 	bl	8002c20 <strcpy>
 8000ae8:	e8bd 4008 	ldmia.w	sp!, {r3, lr}
 8000aec:	f7ff bd07 	b.w	80004fe <lcd1602_Print_text>
 8000af0:	20000214 	.word	0x20000214
 8000af4:	0800351a 	.word	0x0800351a

08000af8 <showTemperature>:
 8000af8:	b510      	push	{r4, lr}
 8000afa:	2101      	movs	r1, #1
 8000afc:	4c09      	ldr	r4, [pc, #36]	; (8000b24 <showTemperature+0x2c>)
 8000afe:	2000      	movs	r0, #0
 8000b00:	f7ff fd0b 	bl	800051a <lcd1602_SetCursor>
 8000b04:	2001      	movs	r0, #1
 8000b06:	f7ff fce3 	bl	80004d0 <lcd1602_Print_symbol>
 8000b0a:	4620      	mov	r0, r4
 8000b0c:	4906      	ldr	r1, [pc, #24]	; (8000b28 <showTemperature+0x30>)
 8000b0e:	f002 f887 	bl	8002c20 <strcpy>
 8000b12:	2101      	movs	r1, #1
 8000b14:	4608      	mov	r0, r1
 8000b16:	f7ff fd00 	bl	800051a <lcd1602_SetCursor>
 8000b1a:	4620      	mov	r0, r4
 8000b1c:	e8bd 4010 	ldmia.w	sp!, {r4, lr}
 8000b20:	f7ff bced 	b.w	80004fe <lcd1602_Print_text>
 8000b24:	20000214 	.word	0x20000214
 8000b28:	08003528 	.word	0x08003528

08000b2c <showRH>:
 8000b2c:	b510      	push	{r4, lr}
 8000b2e:	2101      	movs	r1, #1
 8000b30:	4c09      	ldr	r4, [pc, #36]	; (8000b58 <showRH+0x2c>)
 8000b32:	200c      	movs	r0, #12
 8000b34:	f7ff fcf1 	bl	800051a <lcd1602_SetCursor>
 8000b38:	2003      	movs	r0, #3
 8000b3a:	f7ff fcc9 	bl	80004d0 <lcd1602_Print_symbol>
 8000b3e:	4620      	mov	r0, r4
 8000b40:	4906      	ldr	r1, [pc, #24]	; (8000b5c <showRH+0x30>)
 8000b42:	f002 f819 	bl	8002b78 <siprintf>
 8000b46:	200d      	movs	r0, #13
 8000b48:	2101      	movs	r1, #1
 8000b4a:	f7ff fce6 	bl	800051a <lcd1602_SetCursor>
 8000b4e:	4620      	mov	r0, r4
 8000b50:	e8bd 4010 	ldmia.w	sp!, {r4, lr}
 8000b54:	f7ff bcd3 	b.w	80004fe <lcd1602_Print_text>
 8000b58:	20000214 	.word	0x20000214
 8000b5c:	0800352d 	.word	0x0800352d

08000b60 <showAlarm>:
 8000b60:	b508      	push	{r3, lr}
 8000b62:	200a      	movs	r0, #10
 8000b64:	2100      	movs	r1, #0
 8000b66:	f7ff fcd8 	bl	800051a <lcd1602_SetCursor>
 8000b6a:	e8bd 4008 	ldmia.w	sp!, {r3, lr}
 8000b6e:	2002      	movs	r0, #2
 8000b70:	f7ff bcae 	b.w	80004d0 <lcd1602_Print_symbol>

08000b74 <showMainPage>:
 8000b74:	b508      	push	{r3, lr}
 8000b76:	2100      	movs	r1, #0
 8000b78:	2005      	movs	r0, #5
 8000b7a:	f7ff ff57 	bl	8000a2c <showTime>
 8000b7e:	f7ff ffd5 	bl	8000b2c <showRH>
 8000b82:	f7ff ffb9 	bl	8000af8 <showTemperature>
 8000b86:	f7ff ffeb 	bl	8000b60 <showAlarm>
 8000b8a:	2200      	movs	r2, #0
 8000b8c:	4b01      	ldr	r3, [pc, #4]	; (8000b94 <showMainPage+0x20>)
 8000b8e:	731a      	strb	r2, [r3, #12]
 8000b90:	bd08      	pop	{r3, pc}
 8000b92:	bf00      	nop
 8000b94:	20000004 	.word	0x20000004

08000b98 <initNewSymbols>:
 8000b98:	b508      	push	{r3, lr}
 8000b9a:	2101      	movs	r1, #1
 8000b9c:	4806      	ldr	r0, [pc, #24]	; (8000bb8 <initNewSymbols+0x20>)
 8000b9e:	f7ff fcdf 	bl	8000560 <lcd1602_Create_symbol>
 8000ba2:	2102      	movs	r1, #2
 8000ba4:	4805      	ldr	r0, [pc, #20]	; (8000bbc <initNewSymbols+0x24>)
 8000ba6:	f7ff fcdb 	bl	8000560 <lcd1602_Create_symbol>
 8000baa:	e8bd 4008 	ldmia.w	sp!, {r3, lr}
 8000bae:	2103      	movs	r1, #3
 8000bb0:	4803      	ldr	r0, [pc, #12]	; (8000bc0 <initNewSymbols+0x28>)
 8000bb2:	f7ff bcd5 	b.w	8000560 <lcd1602_Create_symbol>
 8000bb6:	bf00      	nop
 8000bb8:	08003546 	.word	0x08003546
 8000bbc:	08003536 	.word	0x08003536
 8000bc0:	0800353e 	.word	0x0800353e

08000bc4 <setTime>:
 8000bc4:	e92d 41f0 	stmdb	sp!, {r4, r5, r6, r7, r8, lr}
 8000bc8:	f8df 80b4 	ldr.w	r8, [pc, #180]	; 8000c80 <setTime+0xbc>
 8000bcc:	4f2d      	ldr	r7, [pc, #180]	; (8000c84 <setTime+0xc0>)
 8000bce:	2200      	movs	r2, #0
 8000bd0:	4641      	mov	r1, r8
 8000bd2:	482d      	ldr	r0, [pc, #180]	; (8000c88 <setTime+0xc4>)
 8000bd4:	f001 fad0 	bl	8002178 <HAL_RTC_GetTime>
 8000bd8:	783b      	ldrb	r3, [r7, #0]
 8000bda:	f898 6000 	ldrb.w	r6, [r8]
 8000bde:	f898 5001 	ldrb.w	r5, [r8, #1]
 8000be2:	2b00      	cmp	r3, #0
 8000be4:	d146      	bne.n	8000c74 <setTime+0xb0>
 8000be6:	4a29      	ldr	r2, [pc, #164]	; (8000c8c <setTime+0xc8>)
 8000be8:	4c29      	ldr	r4, [pc, #164]	; (8000c90 <setTime+0xcc>)
 8000bea:	7812      	ldrb	r2, [r2, #0]
 8000bec:	7ae3      	ldrb	r3, [r4, #11]
 8000bee:	bb32      	cbnz	r2, 8000c3e <setTime+0x7a>
 8000bf0:	b1db      	cbz	r3, 8000c2a <setTime+0x66>
 8000bf2:	1c73      	adds	r3, r6, #1
 8000bf4:	b2db      	uxtb	r3, r3
 8000bf6:	2b18      	cmp	r3, #24
 8000bf8:	bf08      	it	eq
 8000bfa:	2300      	moveq	r3, #0
 8000bfc:	2200      	movs	r2, #0
 8000bfe:	4920      	ldr	r1, [pc, #128]	; (8000c80 <setTime+0xbc>)
 8000c00:	4821      	ldr	r0, [pc, #132]	; (8000c88 <setTime+0xc4>)
 8000c02:	f888 3000 	strb.w	r3, [r8]
 8000c06:	72e2      	strb	r2, [r4, #11]
 8000c08:	f001 fa66 	bl	80020d8 <HAL_RTC_SetTime>
 8000c0c:	2101      	movs	r1, #1
 8000c0e:	2004      	movs	r0, #4
 8000c10:	f7ff fc83 	bl	800051a <lcd1602_SetCursor>
 8000c14:	491f      	ldr	r1, [pc, #124]	; (8000c94 <setTime+0xd0>)
 8000c16:	4820      	ldr	r0, [pc, #128]	; (8000c98 <setTime+0xd4>)
 8000c18:	f002 f802 	bl	8002c20 <strcpy>
 8000c1c:	481e      	ldr	r0, [pc, #120]	; (8000c98 <setTime+0xd4>)
 8000c1e:	f7ff fc6e 	bl	80004fe <lcd1602_Print_text>
 8000c22:	2301      	movs	r3, #1
 8000c24:	703b      	strb	r3, [r7, #0]
 8000c26:	e8bd 81f0 	ldmia.w	sp!, {r4, r5, r6, r7, r8, pc}
 8000c2a:	8821      	ldrh	r1, [r4, #0]
 8000c2c:	6860      	ldr	r0, [r4, #4]
 8000c2e:	f000 fbc5 	bl	80013bc <HAL_GPIO_ReadPin>
 8000c32:	2800      	cmp	r0, #0
 8000c34:	d1ea      	bne.n	8000c0c <setTime+0x48>
 8000c36:	7b23      	ldrb	r3, [r4, #12]
 8000c38:	2b00      	cmp	r3, #0
 8000c3a:	d1da      	bne.n	8000bf2 <setTime+0x2e>
 8000c3c:	e7e6      	b.n	8000c0c <setTime+0x48>
 8000c3e:	b17b      	cbz	r3, 8000c60 <setTime+0x9c>
 8000c40:	1c6b      	adds	r3, r5, #1
 8000c42:	b2db      	uxtb	r3, r3
 8000c44:	2b3c      	cmp	r3, #60	; 0x3c
 8000c46:	bf08      	it	eq
 8000c48:	2300      	moveq	r3, #0
 8000c4a:	2200      	movs	r2, #0
 8000c4c:	490c      	ldr	r1, [pc, #48]	; (8000c80 <setTime+0xbc>)
 8000c4e:	480e      	ldr	r0, [pc, #56]	; (8000c88 <setTime+0xc4>)
 8000c50:	f888 3001 	strb.w	r3, [r8, #1]
 8000c54:	72e2      	strb	r2, [r4, #11]
 8000c56:	f001 fa3f 	bl	80020d8 <HAL_RTC_SetTime>
 8000c5a:	2101      	movs	r1, #1
 8000c5c:	2007      	movs	r0, #7
 8000c5e:	e7d7      	b.n	8000c10 <setTime+0x4c>
 8000c60:	8821      	ldrh	r1, [r4, #0]
 8000c62:	6860      	ldr	r0, [r4, #4]
 8000c64:	f000 fbaa 	bl	80013bc <HAL_GPIO_ReadPin>
 8000c68:	2800      	cmp	r0, #0
 8000c6a:	d1f6      	bne.n	8000c5a <setTime+0x96>
 8000c6c:	7b23      	ldrb	r3, [r4, #12]
 8000c6e:	2b00      	cmp	r3, #0
 8000c70:	d1e6      	bne.n	8000c40 <setTime+0x7c>
 8000c72:	e7f2      	b.n	8000c5a <setTime+0x96>
 8000c74:	2101      	movs	r1, #1
 8000c76:	2004      	movs	r0, #4
 8000c78:	f7ff fed8 	bl	8000a2c <showTime>
 8000c7c:	2300      	movs	r3, #0
 8000c7e:	e7d1      	b.n	8000c24 <setTime+0x60>
 8000c80:	20000210 	.word	0x20000210
 8000c84:	2000020f 	.word	0x2000020f
 8000c88:	200000f8 	.word	0x200000f8
 8000c8c:	20000213 	.word	0x20000213
 8000c90:	20000014 	.word	0x20000014
 8000c94:	08003533 	.word	0x08003533
 8000c98:	20000214 	.word	0x20000214

08000c9c <chooseSettingValue>:
 8000c9c:	4b05      	ldr	r3, [pc, #20]	; (8000cb4 <chooseSettingValue+0x18>)
 8000c9e:	7ada      	ldrb	r2, [r3, #11]
 8000ca0:	b132      	cbz	r2, 8000cb0 <chooseSettingValue+0x14>
 8000ca2:	2200      	movs	r2, #0
 8000ca4:	72da      	strb	r2, [r3, #11]
 8000ca6:	4a04      	ldr	r2, [pc, #16]	; (8000cb8 <chooseSettingValue+0x1c>)
 8000ca8:	7813      	ldrb	r3, [r2, #0]
 8000caa:	f083 0301 	eor.w	r3, r3, #1
 8000cae:	7013      	strb	r3, [r2, #0]
 8000cb0:	4770      	bx	lr
 8000cb2:	bf00      	nop
 8000cb4:	20000004 	.word	0x20000004
 8000cb8:	20000213 	.word	0x20000213

08000cbc <startTim1ForBlinkValue>:
 8000cbc:	4801      	ldr	r0, [pc, #4]	; (8000cc4 <startTim1ForBlinkValue+0x8>)
 8000cbe:	f001 bc25 	b.w	800250c <HAL_TIM_Base_Start_IT>
 8000cc2:	bf00      	nop
 8000cc4:	2000010c 	.word	0x2000010c

08000cc8 <HAL_MspInit>:
 8000cc8:	4b0e      	ldr	r3, [pc, #56]	; (8000d04 <HAL_MspInit+0x3c>)
 8000cca:	b082      	sub	sp, #8
 8000ccc:	699a      	ldr	r2, [r3, #24]
 8000cce:	f042 0201 	orr.w	r2, r2, #1
 8000cd2:	619a      	str	r2, [r3, #24]
 8000cd4:	699a      	ldr	r2, [r3, #24]
 8000cd6:	f002 0201 	and.w	r2, r2, #1
 8000cda:	9200      	str	r2, [sp, #0]
 8000cdc:	9a00      	ldr	r2, [sp, #0]
 8000cde:	69da      	ldr	r2, [r3, #28]
 8000ce0:	f042 5280 	orr.w	r2, r2, #268435456	; 0x10000000
 8000ce4:	61da      	str	r2, [r3, #28]
 8000ce6:	69db      	ldr	r3, [r3, #28]
 8000ce8:	4a07      	ldr	r2, [pc, #28]	; (8000d08 <HAL_MspInit+0x40>)
 8000cea:	f003 5380 	and.w	r3, r3, #268435456	; 0x10000000
 8000cee:	9301      	str	r3, [sp, #4]
 8000cf0:	9b01      	ldr	r3, [sp, #4]
 8000cf2:	6853      	ldr	r3, [r2, #4]
 8000cf4:	f023 63e0 	bic.w	r3, r3, #117440512	; 0x7000000
 8000cf8:	f043 7300 	orr.w	r3, r3, #33554432	; 0x2000000
 8000cfc:	6053      	str	r3, [r2, #4]
 8000cfe:	b002      	add	sp, #8
 8000d00:	4770      	bx	lr
 8000d02:	bf00      	nop
 8000d04:	40021000 	.word	0x40021000
 8000d08:	40010000 	.word	0x40010000

08000d0c <HAL_I2C_MspInit>:
 8000d0c:	b510      	push	{r4, lr}
 8000d0e:	4604      	mov	r4, r0
 8000d10:	b086      	sub	sp, #24
 8000d12:	2210      	movs	r2, #16
 8000d14:	2100      	movs	r1, #0
 8000d16:	a802      	add	r0, sp, #8
 8000d18:	f001 ff4e 	bl	8002bb8 <memset>
 8000d1c:	6822      	ldr	r2, [r4, #0]
 8000d1e:	4b11      	ldr	r3, [pc, #68]	; (8000d64 <HAL_I2C_MspInit+0x58>)
 8000d20:	429a      	cmp	r2, r3
 8000d22:	d11c      	bne.n	8000d5e <HAL_I2C_MspInit+0x52>
 8000d24:	4c10      	ldr	r4, [pc, #64]	; (8000d68 <HAL_I2C_MspInit+0x5c>)
 8000d26:	22c0      	movs	r2, #192	; 0xc0
 8000d28:	69a3      	ldr	r3, [r4, #24]
 8000d2a:	4810      	ldr	r0, [pc, #64]	; (8000d6c <HAL_I2C_MspInit+0x60>)
 8000d2c:	f043 0308 	orr.w	r3, r3, #8
 8000d30:	61a3      	str	r3, [r4, #24]
 8000d32:	69a3      	ldr	r3, [r4, #24]
 8000d34:	a902      	add	r1, sp, #8
 8000d36:	f003 0308 	and.w	r3, r3, #8
 8000d3a:	9300      	str	r3, [sp, #0]
 8000d3c:	9b00      	ldr	r3, [sp, #0]
 8000d3e:	2312      	movs	r3, #18
 8000d40:	e9cd 2302 	strd	r2, r3, [sp, #8]
 8000d44:	2303      	movs	r3, #3
 8000d46:	9305      	str	r3, [sp, #20]
 8000d48:	f000 fa5e 	bl	8001208 <HAL_GPIO_Init>
 8000d4c:	69e3      	ldr	r3, [r4, #28]
 8000d4e:	f443 1300 	orr.w	r3, r3, #2097152	; 0x200000
 8000d52:	61e3      	str	r3, [r4, #28]
 8000d54:	69e3      	ldr	r3, [r4, #28]
 8000d56:	f403 1300 	and.w	r3, r3, #2097152	; 0x200000
 8000d5a:	9301      	str	r3, [sp, #4]
 8000d5c:	9b01      	ldr	r3, [sp, #4]
 8000d5e:	b006      	add	sp, #24
 8000d60:	bd10      	pop	{r4, pc}
 8000d62:	bf00      	nop
 8000d64:	40005400 	.word	0x40005400
 8000d68:	40021000 	.word	0x40021000
 8000d6c:	40010c00 	.word	0x40010c00

08000d70 <HAL_RTC_MspInit>:
 8000d70:	b507      	push	{r0, r1, r2, lr}
 8000d72:	4b11      	ldr	r3, [pc, #68]	; (8000db8 <HAL_RTC_MspInit+0x48>)
 8000d74:	6802      	ldr	r2, [r0, #0]
 8000d76:	429a      	cmp	r2, r3
 8000d78:	d11a      	bne.n	8000db0 <HAL_RTC_MspInit+0x40>
 8000d7a:	f000 fd75 	bl	8001868 <HAL_PWR_EnableBkUpAccess>
 8000d7e:	4b0f      	ldr	r3, [pc, #60]	; (8000dbc <HAL_RTC_MspInit+0x4c>)
 8000d80:	2003      	movs	r0, #3
 8000d82:	69da      	ldr	r2, [r3, #28]
 8000d84:	f042 6200 	orr.w	r2, r2, #134217728	; 0x8000000
 8000d88:	61da      	str	r2, [r3, #28]
 8000d8a:	2201      	movs	r2, #1
 8000d8c:	69db      	ldr	r3, [r3, #28]
 8000d8e:	f003 6300 	and.w	r3, r3, #134217728	; 0x8000000
 8000d92:	9301      	str	r3, [sp, #4]
 8000d94:	9b01      	ldr	r3, [sp, #4]
 8000d96:	4b0a      	ldr	r3, [pc, #40]	; (8000dc0 <HAL_RTC_MspInit+0x50>)
 8000d98:	f8c3 243c 	str.w	r2, [r3, #1084]	; 0x43c
 8000d9c:	2200      	movs	r2, #0
 8000d9e:	4611      	mov	r1, r2
 8000da0:	f000 f9ce 	bl	8001140 <HAL_NVIC_SetPriority>
 8000da4:	2003      	movs	r0, #3
 8000da6:	b003      	add	sp, #12
 8000da8:	f85d eb04 	ldr.w	lr, [sp], #4
 8000dac:	f000 b9f8 	b.w	80011a0 <HAL_NVIC_EnableIRQ>
 8000db0:	b003      	add	sp, #12
 8000db2:	f85d fb04 	ldr.w	pc, [sp], #4
 8000db6:	bf00      	nop
 8000db8:	40002800 	.word	0x40002800
 8000dbc:	40021000 	.word	0x40021000
 8000dc0:	42420000 	.word	0x42420000

08000dc4 <HAL_TIM_Base_MspInit>:
 8000dc4:	b51f      	push	{r0, r1, r2, r3, r4, lr}
 8000dc6:	6803      	ldr	r3, [r0, #0]
 8000dc8:	4a28      	ldr	r2, [pc, #160]	; (8000e6c <HAL_TIM_Base_MspInit+0xa8>)
 8000dca:	4293      	cmp	r3, r2
 8000dcc:	d114      	bne.n	8000df8 <HAL_TIM_Base_MspInit+0x34>
 8000dce:	4b28      	ldr	r3, [pc, #160]	; (8000e70 <HAL_TIM_Base_MspInit+0xac>)
 8000dd0:	2019      	movs	r0, #25
 8000dd2:	699a      	ldr	r2, [r3, #24]
 8000dd4:	f442 6200 	orr.w	r2, r2, #2048	; 0x800
 8000dd8:	619a      	str	r2, [r3, #24]
 8000dda:	2200      	movs	r2, #0
 8000ddc:	699b      	ldr	r3, [r3, #24]
 8000dde:	4611      	mov	r1, r2
 8000de0:	f403 6300 	and.w	r3, r3, #2048	; 0x800
 8000de4:	9300      	str	r3, [sp, #0]
 8000de6:	9b00      	ldr	r3, [sp, #0]
 8000de8:	f000 f9aa 	bl	8001140 <HAL_NVIC_SetPriority>
 8000dec:	2019      	movs	r0, #25
 8000dee:	b005      	add	sp, #20
 8000df0:	f85d eb04 	ldr.w	lr, [sp], #4
 8000df4:	f000 b9d4 	b.w	80011a0 <HAL_NVIC_EnableIRQ>
 8000df8:	f1b3 4f80 	cmp.w	r3, #1073741824	; 0x40000000
 8000dfc:	d10d      	bne.n	8000e1a <HAL_TIM_Base_MspInit+0x56>
 8000dfe:	f503 3304 	add.w	r3, r3, #135168	; 0x21000
 8000e02:	69da      	ldr	r2, [r3, #28]
 8000e04:	f042 0201 	orr.w	r2, r2, #1
 8000e08:	61da      	str	r2, [r3, #28]
 8000e0a:	69db      	ldr	r3, [r3, #28]
 8000e0c:	f003 0301 	and.w	r3, r3, #1
 8000e10:	9301      	str	r3, [sp, #4]
 8000e12:	9b01      	ldr	r3, [sp, #4]
 8000e14:	b005      	add	sp, #20
 8000e16:	f85d fb04 	ldr.w	pc, [sp], #4
 8000e1a:	4a16      	ldr	r2, [pc, #88]	; (8000e74 <HAL_TIM_Base_MspInit+0xb0>)
 8000e1c:	4293      	cmp	r3, r2
 8000e1e:	d110      	bne.n	8000e42 <HAL_TIM_Base_MspInit+0x7e>
 8000e20:	4b13      	ldr	r3, [pc, #76]	; (8000e70 <HAL_TIM_Base_MspInit+0xac>)
 8000e22:	201d      	movs	r0, #29
 8000e24:	69da      	ldr	r2, [r3, #28]
 8000e26:	f042 0202 	orr.w	r2, r2, #2
 8000e2a:	61da      	str	r2, [r3, #28]
 8000e2c:	2200      	movs	r2, #0
 8000e2e:	69db      	ldr	r3, [r3, #28]
 8000e30:	4611      	mov	r1, r2
 8000e32:	f003 0302 	and.w	r3, r3, #2
 8000e36:	9302      	str	r3, [sp, #8]
 8000e38:	9b02      	ldr	r3, [sp, #8]
 8000e3a:	f000 f981 	bl	8001140 <HAL_NVIC_SetPriority>
 8000e3e:	201d      	movs	r0, #29
 8000e40:	e7d5      	b.n	8000dee <HAL_TIM_Base_MspInit+0x2a>
 8000e42:	4a0d      	ldr	r2, [pc, #52]	; (8000e78 <HAL_TIM_Base_MspInit+0xb4>)
 8000e44:	4293      	cmp	r3, r2
 8000e46:	d1e5      	bne.n	8000e14 <HAL_TIM_Base_MspInit+0x50>
 8000e48:	4b09      	ldr	r3, [pc, #36]	; (8000e70 <HAL_TIM_Base_MspInit+0xac>)
 8000e4a:	201e      	movs	r0, #30
 8000e4c:	69da      	ldr	r2, [r3, #28]
 8000e4e:	f042 0204 	orr.w	r2, r2, #4
 8000e52:	61da      	str	r2, [r3, #28]
 8000e54:	2200      	movs	r2, #0
 8000e56:	69db      	ldr	r3, [r3, #28]
 8000e58:	4611      	mov	r1, r2
 8000e5a:	f003 0304 	and.w	r3, r3, #4
 8000e5e:	9303      	str	r3, [sp, #12]
 8000e60:	9b03      	ldr	r3, [sp, #12]
 8000e62:	f000 f96d 	bl	8001140 <HAL_NVIC_SetPriority>
 8000e66:	201e      	movs	r0, #30
 8000e68:	e7c1      	b.n	8000dee <HAL_TIM_Base_MspInit+0x2a>
 8000e6a:	bf00      	nop
 8000e6c:	40012c00 	.word	0x40012c00
 8000e70:	40021000 	.word	0x40021000
 8000e74:	40000400 	.word	0x40000400
 8000e78:	40000800 	.word	0x40000800

08000e7c <HAL_TIM_MspPostInit>:
 8000e7c:	b510      	push	{r4, lr}
 8000e7e:	4604      	mov	r4, r0
 8000e80:	b086      	sub	sp, #24
 8000e82:	2210      	movs	r2, #16
 8000e84:	2100      	movs	r1, #0
 8000e86:	a802      	add	r0, sp, #8
 8000e88:	f001 fe96 	bl	8002bb8 <memset>
 8000e8c:	6823      	ldr	r3, [r4, #0]
 8000e8e:	f1b3 4f80 	cmp.w	r3, #1073741824	; 0x40000000
 8000e92:	d113      	bne.n	8000ebc <HAL_TIM_MspPostInit+0x40>
 8000e94:	f503 3304 	add.w	r3, r3, #135168	; 0x21000
 8000e98:	699a      	ldr	r2, [r3, #24]
 8000e9a:	4809      	ldr	r0, [pc, #36]	; (8000ec0 <HAL_TIM_MspPostInit+0x44>)
 8000e9c:	f042 0204 	orr.w	r2, r2, #4
 8000ea0:	619a      	str	r2, [r3, #24]
 8000ea2:	699b      	ldr	r3, [r3, #24]
 8000ea4:	2201      	movs	r2, #1
 8000ea6:	f003 0304 	and.w	r3, r3, #4
 8000eaa:	9301      	str	r3, [sp, #4]
 8000eac:	9b01      	ldr	r3, [sp, #4]
 8000eae:	2302      	movs	r3, #2
 8000eb0:	a902      	add	r1, sp, #8
 8000eb2:	e9cd 2302 	strd	r2, r3, [sp, #8]
 8000eb6:	9305      	str	r3, [sp, #20]
 8000eb8:	f000 f9a6 	bl	8001208 <HAL_GPIO_Init>
 8000ebc:	b006      	add	sp, #24
 8000ebe:	bd10      	pop	{r4, pc}
 8000ec0:	40010800 	.word	0x40010800

08000ec4 <HAL_TIM_PeriodElapsedCallback>:
 8000ec4:	6802      	ldr	r2, [r0, #0]
 8000ec6:	4b15      	ldr	r3, [pc, #84]	; (8000f1c <HAL_TIM_PeriodElapsedCallback+0x58>)
 8000ec8:	b510      	push	{r4, lr}
 8000eca:	429a      	cmp	r2, r3
 8000ecc:	4604      	mov	r4, r0
 8000ece:	d107      	bne.n	8000ee0 <HAL_TIM_PeriodElapsedCallback+0x1c>
 8000ed0:	4b13      	ldr	r3, [pc, #76]	; (8000f20 <HAL_TIM_PeriodElapsedCallback+0x5c>)
 8000ed2:	781b      	ldrb	r3, [r3, #0]
 8000ed4:	2b01      	cmp	r3, #1
 8000ed6:	bf0c      	ite	eq
 8000ed8:	4812      	ldreq	r0, [pc, #72]	; (8000f24 <HAL_TIM_PeriodElapsedCallback+0x60>)
 8000eda:	4813      	ldrne	r0, [pc, #76]	; (8000f28 <HAL_TIM_PeriodElapsedCallback+0x64>)
 8000edc:	f7ff f9ac 	bl	8000238 <getDataFromButton>
 8000ee0:	6822      	ldr	r2, [r4, #0]
 8000ee2:	4b12      	ldr	r3, [pc, #72]	; (8000f2c <HAL_TIM_PeriodElapsedCallback+0x68>)
 8000ee4:	429a      	cmp	r2, r3
 8000ee6:	d104      	bne.n	8000ef2 <HAL_TIM_PeriodElapsedCallback+0x2e>
 8000ee8:	f7ff fe6c 	bl	8000bc4 <setTime>
 8000eec:	2201      	movs	r2, #1
 8000eee:	4b10      	ldr	r3, [pc, #64]	; (8000f30 <HAL_TIM_PeriodElapsedCallback+0x6c>)
 8000ef0:	701a      	strb	r2, [r3, #0]
 8000ef2:	6822      	ldr	r2, [r4, #0]
 8000ef4:	4b0f      	ldr	r3, [pc, #60]	; (8000f34 <HAL_TIM_PeriodElapsedCallback+0x70>)
 8000ef6:	429a      	cmp	r2, r3
 8000ef8:	d10a      	bne.n	8000f10 <HAL_TIM_PeriodElapsedCallback+0x4c>
 8000efa:	4c0f      	ldr	r4, [pc, #60]	; (8000f38 <HAL_TIM_PeriodElapsedCallback+0x74>)
 8000efc:	7823      	ldrb	r3, [r4, #0]
 8000efe:	f003 01ff 	and.w	r1, r3, #255	; 0xff
 8000f02:	b133      	cbz	r3, 8000f12 <HAL_TIM_PeriodElapsedCallback+0x4e>
 8000f04:	2100      	movs	r1, #0
 8000f06:	480d      	ldr	r0, [pc, #52]	; (8000f3c <HAL_TIM_PeriodElapsedCallback+0x78>)
 8000f08:	f001 fd9c 	bl	8002a44 <HAL_TIM_PWM_Start_IT>
 8000f0c:	2300      	movs	r3, #0
 8000f0e:	7023      	strb	r3, [r4, #0]
 8000f10:	bd10      	pop	{r4, pc}
 8000f12:	480a      	ldr	r0, [pc, #40]	; (8000f3c <HAL_TIM_PeriodElapsedCallback+0x78>)
 8000f14:	f001 fdda 	bl	8002acc <HAL_TIM_PWM_Stop_IT>
 8000f18:	2301      	movs	r3, #1
 8000f1a:	e7f8      	b.n	8000f0e <HAL_TIM_PeriodElapsedCallback+0x4a>
 8000f1c:	40000400 	.word	0x40000400
 8000f20:	200000a2 	.word	0x200000a2
 8000f24:	20000004 	.word	0x20000004
 8000f28:	20000014 	.word	0x20000014
 8000f2c:	40012c00 	.word	0x40012c00
 8000f30:	2000020e 	.word	0x2000020e
 8000f34:	40000800 	.word	0x40000800
 8000f38:	2000023c 	.word	0x2000023c
 8000f3c:	2000014c 	.word	0x2000014c

08000f40 <NMI_Handler>:
 8000f40:	e7fe      	b.n	8000f40 <NMI_Handler>

08000f42 <HardFault_Handler>:
 8000f42:	e7fe      	b.n	8000f42 <HardFault_Handler>

08000f44 <MemManage_Handler>:
 8000f44:	e7fe      	b.n	8000f44 <MemManage_Handler>

08000f46 <BusFault_Handler>:
 8000f46:	e7fe      	b.n	8000f46 <BusFault_Handler>

08000f48 <UsageFault_Handler>:
 8000f48:	e7fe      	b.n	8000f48 <UsageFault_Handler>

08000f4a <SVC_Handler>:
 8000f4a:	4770      	bx	lr

08000f4c <DebugMon_Handler>:
 8000f4c:	4770      	bx	lr

08000f4e <PendSV_Handler>:
 8000f4e:	4770      	bx	lr

08000f50 <SysTick_Handler>:
 8000f50:	f000 b8c0 	b.w	80010d4 <HAL_IncTick>

08000f54 <RTC_IRQHandler>:
 8000f54:	4801      	ldr	r0, [pc, #4]	; (8000f5c <RTC_IRQHandler+0x8>)
 8000f56:	f001 ba47 	b.w	80023e8 <HAL_RTCEx_RTCIRQHandler>
 8000f5a:	bf00      	nop
 8000f5c:	200000f8 	.word	0x200000f8

08000f60 <EXTI1_IRQHandler>:
 8000f60:	2002      	movs	r0, #2
 8000f62:	f000 ba31 	b.w	80013c8 <HAL_GPIO_EXTI_IRQHandler>

08000f66 <EXTI2_IRQHandler>:
 8000f66:	2004      	movs	r0, #4
 8000f68:	f000 ba2e 	b.w	80013c8 <HAL_GPIO_EXTI_IRQHandler>

08000f6c <TIM1_UP_IRQHandler>:
 8000f6c:	4801      	ldr	r0, [pc, #4]	; (8000f74 <TIM1_UP_IRQHandler+0x8>)
 8000f6e:	f001 baf7 	b.w	8002560 <HAL_TIM_IRQHandler>
 8000f72:	bf00      	nop
 8000f74:	2000010c 	.word	0x2000010c

08000f78 <TIM3_IRQHandler>:
 8000f78:	4801      	ldr	r0, [pc, #4]	; (8000f80 <TIM3_IRQHandler+0x8>)
 8000f7a:	f001 baf1 	b.w	8002560 <HAL_TIM_IRQHandler>
 8000f7e:	bf00      	nop
 8000f80:	2000018c 	.word	0x2000018c

08000f84 <TIM4_IRQHandler>:
 8000f84:	4801      	ldr	r0, [pc, #4]	; (8000f8c <TIM4_IRQHandler+0x8>)
 8000f86:	f001 baeb 	b.w	8002560 <HAL_TIM_IRQHandler>
 8000f8a:	bf00      	nop
 8000f8c:	200001cc 	.word	0x200001cc

08000f90 <_sbrk>:
 8000f90:	4a0b      	ldr	r2, [pc, #44]	; (8000fc0 <_sbrk+0x30>)
 8000f92:	4603      	mov	r3, r0
 8000f94:	6811      	ldr	r1, [r2, #0]
 8000f96:	b510      	push	{r4, lr}
 8000f98:	b909      	cbnz	r1, 8000f9e <_sbrk+0xe>
 8000f9a:	490a      	ldr	r1, [pc, #40]	; (8000fc4 <_sbrk+0x34>)
 8000f9c:	6011      	str	r1, [r2, #0]
 8000f9e:	6810      	ldr	r0, [r2, #0]
 8000fa0:	4909      	ldr	r1, [pc, #36]	; (8000fc8 <_sbrk+0x38>)
 8000fa2:	4c0a      	ldr	r4, [pc, #40]	; (8000fcc <_sbrk+0x3c>)
 8000fa4:	4403      	add	r3, r0
 8000fa6:	1b09      	subs	r1, r1, r4
 8000fa8:	428b      	cmp	r3, r1
 8000faa:	d906      	bls.n	8000fba <_sbrk+0x2a>
 8000fac:	f001 fe0c 	bl	8002bc8 <__errno>
 8000fb0:	230c      	movs	r3, #12
 8000fb2:	6003      	str	r3, [r0, #0]
 8000fb4:	f04f 30ff 	mov.w	r0, #4294967295
 8000fb8:	bd10      	pop	{r4, pc}
 8000fba:	6013      	str	r3, [r2, #0]
 8000fbc:	e7fc      	b.n	8000fb8 <_sbrk+0x28>
 8000fbe:	bf00      	nop
 8000fc0:	20000240 	.word	0x20000240
 8000fc4:	20000390 	.word	0x20000390
 8000fc8:	20005000 	.word	0x20005000
 8000fcc:	00000400 	.word	0x00000400

08000fd0 <SystemInit>:
 8000fd0:	4b0f      	ldr	r3, [pc, #60]	; (8001010 <SystemInit+0x40>)
 8000fd2:	681a      	ldr	r2, [r3, #0]
 8000fd4:	f042 0201 	orr.w	r2, r2, #1
 8000fd8:	601a      	str	r2, [r3, #0]
 8000fda:	6859      	ldr	r1, [r3, #4]
 8000fdc:	4a0d      	ldr	r2, [pc, #52]	; (8001014 <SystemInit+0x44>)
 8000fde:	400a      	ands	r2, r1
 8000fe0:	605a      	str	r2, [r3, #4]
 8000fe2:	681a      	ldr	r2, [r3, #0]
 8000fe4:	f022 7284 	bic.w	r2, r2, #17301504	; 0x1080000
 8000fe8:	f422 3280 	bic.w	r2, r2, #65536	; 0x10000
 8000fec:	601a      	str	r2, [r3, #0]
 8000fee:	681a      	ldr	r2, [r3, #0]
 8000ff0:	f422 2280 	bic.w	r2, r2, #262144	; 0x40000
 8000ff4:	601a      	str	r2, [r3, #0]
 8000ff6:	685a      	ldr	r2, [r3, #4]
 8000ff8:	f422 02fe 	bic.w	r2, r2, #8323072	; 0x7f0000
 8000ffc:	605a      	str	r2, [r3, #4]
 8000ffe:	f44f 021f 	mov.w	r2, #10420224	; 0x9f0000
 8001002:	609a      	str	r2, [r3, #8]
 8001004:	f04f 6200 	mov.w	r2, #134217728	; 0x8000000
 8001008:	4b03      	ldr	r3, [pc, #12]	; (8001018 <SystemInit+0x48>)
 800100a:	609a      	str	r2, [r3, #8]
 800100c:	4770      	bx	lr
 800100e:	bf00      	nop
 8001010:	40021000 	.word	0x40021000
 8001014:	f8ff0000 	.word	0xf8ff0000
 8001018:	e000ed00 	.word	0xe000ed00

0800101c <Reset_Handler>:
 800101c:	2100      	movs	r1, #0
 800101e:	e003      	b.n	8001028 <LoopCopyDataInit>

08001020 <CopyDataInit>:
 8001020:	4b0b      	ldr	r3, [pc, #44]	; (8001050 <LoopFillZerobss+0x14>)
 8001022:	585b      	ldr	r3, [r3, r1]
 8001024:	5043      	str	r3, [r0, r1]
 8001026:	3104      	adds	r1, #4

08001028 <LoopCopyDataInit>:
 8001028:	480a      	ldr	r0, [pc, #40]	; (8001054 <LoopFillZerobss+0x18>)
 800102a:	4b0b      	ldr	r3, [pc, #44]	; (8001058 <LoopFillZerobss+0x1c>)
 800102c:	1842      	adds	r2, r0, r1
 800102e:	429a      	cmp	r2, r3
 8001030:	d3f6      	bcc.n	8001020 <CopyDataInit>
 8001032:	4a0a      	ldr	r2, [pc, #40]	; (800105c <LoopFillZerobss+0x20>)
 8001034:	e002      	b.n	800103c <LoopFillZerobss>

08001036 <FillZerobss>:
 8001036:	2300      	movs	r3, #0
 8001038:	f842 3b04 	str.w	r3, [r2], #4

0800103c <LoopFillZerobss>:
 800103c:	4b08      	ldr	r3, [pc, #32]	; (8001060 <LoopFillZerobss+0x24>)
 800103e:	429a      	cmp	r2, r3
 8001040:	d3f9      	bcc.n	8001036 <FillZerobss>
 8001042:	f7ff ffc5 	bl	8000fd0 <SystemInit>
 8001046:	f001 fdc5 	bl	8002bd4 <__libc_init_array>
 800104a:	f7ff fb2b 	bl	80006a4 <main>
 800104e:	4770      	bx	lr
 8001050:	080035b4 	.word	0x080035b4
 8001054:	20000000 	.word	0x20000000
 8001058:	20000084 	.word	0x20000084
 800105c:	20000084 	.word	0x20000084
 8001060:	20000390 	.word	0x20000390

08001064 <ADC1_2_IRQHandler>:
 8001064:	e7fe      	b.n	8001064 <ADC1_2_IRQHandler>
	...

08001068 <HAL_InitTick>:
 8001068:	b538      	push	{r3, r4, r5, lr}
 800106a:	4b0e      	ldr	r3, [pc, #56]	; (80010a4 <HAL_InitTick+0x3c>)
 800106c:	4605      	mov	r5, r0
 800106e:	781a      	ldrb	r2, [r3, #0]
 8001070:	f44f 737a 	mov.w	r3, #1000	; 0x3e8
 8001074:	fbb3 f3f2 	udiv	r3, r3, r2
 8001078:	4a0b      	ldr	r2, [pc, #44]	; (80010a8 <HAL_InitTick+0x40>)
 800107a:	6810      	ldr	r0, [r2, #0]
 800107c:	fbb0 f0f3 	udiv	r0, r0, r3
 8001080:	f000 f8ae 	bl	80011e0 <HAL_SYSTICK_Config>
 8001084:	4604      	mov	r4, r0
 8001086:	b958      	cbnz	r0, 80010a0 <HAL_InitTick+0x38>
 8001088:	2d0f      	cmp	r5, #15
 800108a:	d809      	bhi.n	80010a0 <HAL_InitTick+0x38>
 800108c:	4602      	mov	r2, r0
 800108e:	4629      	mov	r1, r5
 8001090:	f04f 30ff 	mov.w	r0, #4294967295
 8001094:	f000 f854 	bl	8001140 <HAL_NVIC_SetPriority>
 8001098:	4620      	mov	r0, r4
 800109a:	4b04      	ldr	r3, [pc, #16]	; (80010ac <HAL_InitTick+0x44>)
 800109c:	601d      	str	r5, [r3, #0]
 800109e:	bd38      	pop	{r3, r4, r5, pc}
 80010a0:	2001      	movs	r0, #1
 80010a2:	e7fc      	b.n	800109e <HAL_InitTick+0x36>
 80010a4:	2000002c 	.word	0x2000002c
 80010a8:	20000028 	.word	0x20000028
 80010ac:	20000030 	.word	0x20000030

080010b0 <HAL_Init>:
 80010b0:	4a07      	ldr	r2, [pc, #28]	; (80010d0 <HAL_Init+0x20>)
 80010b2:	b508      	push	{r3, lr}
 80010b4:	6813      	ldr	r3, [r2, #0]
 80010b6:	2003      	movs	r0, #3
 80010b8:	f043 0310 	orr.w	r3, r3, #16
 80010bc:	6013      	str	r3, [r2, #0]
 80010be:	f000 f82d 	bl	800111c <HAL_NVIC_SetPriorityGrouping>
 80010c2:	200f      	movs	r0, #15
 80010c4:	f7ff ffd0 	bl	8001068 <HAL_InitTick>
 80010c8:	f7ff fdfe 	bl	8000cc8 <HAL_MspInit>
 80010cc:	2000      	movs	r0, #0
 80010ce:	bd08      	pop	{r3, pc}
 80010d0:	40022000 	.word	0x40022000

080010d4 <HAL_IncTick>:
 80010d4:	4a03      	ldr	r2, [pc, #12]	; (80010e4 <HAL_IncTick+0x10>)
 80010d6:	4b04      	ldr	r3, [pc, #16]	; (80010e8 <HAL_IncTick+0x14>)
 80010d8:	6811      	ldr	r1, [r2, #0]
 80010da:	781b      	ldrb	r3, [r3, #0]
 80010dc:	440b      	add	r3, r1
 80010de:	6013      	str	r3, [r2, #0]
 80010e0:	4770      	bx	lr
 80010e2:	bf00      	nop
 80010e4:	20000244 	.word	0x20000244
 80010e8:	2000002c 	.word	0x2000002c

080010ec <HAL_GetTick>:
 80010ec:	4b01      	ldr	r3, [pc, #4]	; (80010f4 <HAL_GetTick+0x8>)
 80010ee:	6818      	ldr	r0, [r3, #0]
 80010f0:	4770      	bx	lr
 80010f2:	bf00      	nop
 80010f4:	20000244 	.word	0x20000244

080010f8 <HAL_Delay>:
 80010f8:	b538      	push	{r3, r4, r5, lr}
 80010fa:	4604      	mov	r4, r0
 80010fc:	f7ff fff6 	bl	80010ec <HAL_GetTick>
 8001100:	4605      	mov	r5, r0
 8001102:	1c63      	adds	r3, r4, #1
 8001104:	bf1e      	ittt	ne
 8001106:	4b04      	ldrne	r3, [pc, #16]	; (8001118 <HAL_Delay+0x20>)
 8001108:	781b      	ldrbne	r3, [r3, #0]
 800110a:	18e4      	addne	r4, r4, r3
 800110c:	f7ff ffee 	bl	80010ec <HAL_GetTick>
 8001110:	1b43      	subs	r3, r0, r5
 8001112:	42a3      	cmp	r3, r4
 8001114:	d3fa      	bcc.n	800110c <HAL_Delay+0x14>
 8001116:	bd38      	pop	{r3, r4, r5, pc}
 8001118:	2000002c 	.word	0x2000002c

0800111c <HAL_NVIC_SetPriorityGrouping>:
 800111c:	4907      	ldr	r1, [pc, #28]	; (800113c <HAL_NVIC_SetPriorityGrouping+0x20>)
 800111e:	0203      	lsls	r3, r0, #8
 8001120:	68ca      	ldr	r2, [r1, #12]
 8001122:	f403 63e0 	and.w	r3, r3, #1792	; 0x700
 8001126:	f422 62e0 	bic.w	r2, r2, #1792	; 0x700
 800112a:	0412      	lsls	r2, r2, #16
 800112c:	0c12      	lsrs	r2, r2, #16
 800112e:	4313      	orrs	r3, r2
 8001130:	f043 63bf 	orr.w	r3, r3, #100139008	; 0x5f80000
 8001134:	f443 3300 	orr.w	r3, r3, #131072	; 0x20000
 8001138:	60cb      	str	r3, [r1, #12]
 800113a:	4770      	bx	lr
 800113c:	e000ed00 	.word	0xe000ed00

08001140 <HAL_NVIC_SetPriority>:
 8001140:	4b15      	ldr	r3, [pc, #84]	; (8001198 <HAL_NVIC_SetPriority+0x58>)
 8001142:	b530      	push	{r4, r5, lr}
 8001144:	68dc      	ldr	r4, [r3, #12]
 8001146:	f3c4 2402 	ubfx	r4, r4, #8, #3
 800114a:	f1c4 0307 	rsb	r3, r4, #7
 800114e:	1d25      	adds	r5, r4, #4
 8001150:	2b04      	cmp	r3, #4
 8001152:	bf28      	it	cs
 8001154:	2304      	movcs	r3, #4
 8001156:	2d06      	cmp	r5, #6
 8001158:	f04f 35ff 	mov.w	r5, #4294967295
 800115c:	bf94      	ite	ls
 800115e:	2400      	movls	r4, #0
 8001160:	3c03      	subhi	r4, #3
 8001162:	fa05 f303 	lsl.w	r3, r5, r3
 8001166:	ea21 0303 	bic.w	r3, r1, r3
 800116a:	40a5      	lsls	r5, r4
 800116c:	ea22 0205 	bic.w	r2, r2, r5
 8001170:	40a3      	lsls	r3, r4
 8001172:	2800      	cmp	r0, #0
 8001174:	ea43 0302 	orr.w	r3, r3, r2
 8001178:	bfac      	ite	ge
 800117a:	f100 4060 	addge.w	r0, r0, #3758096384	; 0xe0000000
 800117e:	4a07      	ldrlt	r2, [pc, #28]	; (800119c <HAL_NVIC_SetPriority+0x5c>)
 8001180:	ea4f 1303 	mov.w	r3, r3, lsl #4
 8001184:	b2db      	uxtb	r3, r3
 8001186:	bfab      	itete	ge
 8001188:	f500 4061 	addge.w	r0, r0, #57600	; 0xe100
 800118c:	f000 000f 	andlt.w	r0, r0, #15
 8001190:	f880 3300 	strbge.w	r3, [r0, #768]	; 0x300
 8001194:	5413      	strblt	r3, [r2, r0]
 8001196:	bd30      	pop	{r4, r5, pc}
 8001198:	e000ed00 	.word	0xe000ed00
 800119c:	e000ed14 	.word	0xe000ed14

080011a0 <HAL_NVIC_EnableIRQ>:
 80011a0:	2800      	cmp	r0, #0
 80011a2:	db07      	blt.n	80011b4 <HAL_NVIC_EnableIRQ+0x14>
 80011a4:	2301      	movs	r3, #1
 80011a6:	0941      	lsrs	r1, r0, #5
 80011a8:	4a03      	ldr	r2, [pc, #12]	; (80011b8 <HAL_NVIC_EnableIRQ+0x18>)
 80011aa:	f000 001f 	and.w	r0, r0, #31
 80011ae:	4083      	lsls	r3, r0
 80011b0:	f842 3021 	str.w	r3, [r2, r1, lsl #2]
 80011b4:	4770      	bx	lr
 80011b6:	bf00      	nop
 80011b8:	e000e100 	.word	0xe000e100

080011bc <HAL_NVIC_DisableIRQ>:
 80011bc:	2800      	cmp	r0, #0
 80011be:	db0c      	blt.n	80011da <HAL_NVIC_DisableIRQ+0x1e>
 80011c0:	2201      	movs	r2, #1
 80011c2:	4906      	ldr	r1, [pc, #24]	; (80011dc <HAL_NVIC_DisableIRQ+0x20>)
 80011c4:	0943      	lsrs	r3, r0, #5
 80011c6:	f000 001f 	and.w	r0, r0, #31
 80011ca:	4082      	lsls	r2, r0
 80011cc:	3320      	adds	r3, #32
 80011ce:	f841 2023 	str.w	r2, [r1, r3, lsl #2]
 80011d2:	f3bf 8f4f 	dsb	sy
 80011d6:	f3bf 8f6f 	isb	sy
 80011da:	4770      	bx	lr
 80011dc:	e000e100 	.word	0xe000e100

080011e0 <HAL_SYSTICK_Config>:
 80011e0:	3801      	subs	r0, #1
 80011e2:	f1b0 7f80 	cmp.w	r0, #16777216	; 0x1000000
 80011e6:	d20b      	bcs.n	8001200 <HAL_SYSTICK_Config+0x20>
 80011e8:	f04f 23e0 	mov.w	r3, #3758153728	; 0xe000e000
 80011ec:	21f0      	movs	r1, #240	; 0xf0
 80011ee:	4a05      	ldr	r2, [pc, #20]	; (8001204 <HAL_SYSTICK_Config+0x24>)
 80011f0:	6158      	str	r0, [r3, #20]
 80011f2:	f882 1023 	strb.w	r1, [r2, #35]	; 0x23
 80011f6:	2000      	movs	r0, #0
 80011f8:	2207      	movs	r2, #7
 80011fa:	6198      	str	r0, [r3, #24]
 80011fc:	611a      	str	r2, [r3, #16]
 80011fe:	4770      	bx	lr
 8001200:	2001      	movs	r0, #1
 8001202:	4770      	bx	lr
 8001204:	e000ed00 	.word	0xe000ed00

08001208 <HAL_GPIO_Init>:
 8001208:	e92d 4ff7 	stmdb	sp!, {r0, r1, r2, r4, r5, r6, r7, r8, r9, sl, fp, lr}
 800120c:	2200      	movs	r2, #0
 800120e:	4616      	mov	r6, r2
 8001210:	4f64      	ldr	r7, [pc, #400]	; (80013a4 <HAL_GPIO_Init+0x19c>)
 8001212:	4b65      	ldr	r3, [pc, #404]	; (80013a8 <HAL_GPIO_Init+0x1a0>)
 8001214:	f8df c194 	ldr.w	ip, [pc, #404]	; 80013ac <HAL_GPIO_Init+0x1a4>
 8001218:	f8df e194 	ldr.w	lr, [pc, #404]	; 80013b0 <HAL_GPIO_Init+0x1a8>
 800121c:	680d      	ldr	r5, [r1, #0]
 800121e:	fa35 f406 	lsrs.w	r4, r5, r6
 8001222:	d102      	bne.n	800122a <HAL_GPIO_Init+0x22>
 8001224:	b003      	add	sp, #12
 8001226:	e8bd 8ff0 	ldmia.w	sp!, {r4, r5, r6, r7, r8, r9, sl, fp, pc}
 800122a:	f04f 0801 	mov.w	r8, #1
 800122e:	fa08 f806 	lsl.w	r8, r8, r6
 8001232:	ea05 0408 	and.w	r4, r5, r8
 8001236:	ea38 0505 	bics.w	r5, r8, r5
 800123a:	d17a      	bne.n	8001332 <HAL_GPIO_Init+0x12a>
 800123c:	684d      	ldr	r5, [r1, #4]
 800123e:	2d03      	cmp	r5, #3
 8001240:	d807      	bhi.n	8001252 <HAL_GPIO_Init+0x4a>
 8001242:	3d01      	subs	r5, #1
 8001244:	2d02      	cmp	r5, #2
 8001246:	f200 8087 	bhi.w	8001358 <HAL_GPIO_Init+0x150>
 800124a:	e8df f005 	tbb	[pc, r5]
 800124e:	9a95      	.short	0x9a95
 8001250:	a0          	.byte	0xa0
 8001251:	00          	.byte	0x00
 8001252:	2d12      	cmp	r5, #18
 8001254:	f000 8098 	beq.w	8001388 <HAL_GPIO_Init+0x180>
 8001258:	d86d      	bhi.n	8001336 <HAL_GPIO_Init+0x12e>
 800125a:	2d11      	cmp	r5, #17
 800125c:	f000 808e 	beq.w	800137c <HAL_GPIO_Init+0x174>
 8001260:	2cff      	cmp	r4, #255	; 0xff
 8001262:	bf98      	it	ls
 8001264:	4682      	movls	sl, r0
 8001266:	f04f 090f 	mov.w	r9, #15
 800126a:	bf88      	it	hi
 800126c:	f100 0a04 	addhi.w	sl, r0, #4
 8001270:	ea4f 0586 	mov.w	r5, r6, lsl #2
 8001274:	f8da 8000 	ldr.w	r8, [sl]
 8001278:	bf88      	it	hi
 800127a:	3d20      	subhi	r5, #32
 800127c:	fa09 fb05 	lsl.w	fp, r9, r5
 8001280:	ea28 080b 	bic.w	r8, r8, fp
 8001284:	fa02 f505 	lsl.w	r5, r2, r5
 8001288:	ea48 0505 	orr.w	r5, r8, r5
 800128c:	f8ca 5000 	str.w	r5, [sl]
 8001290:	f8d1 a004 	ldr.w	sl, [r1, #4]
 8001294:	f01a 5f80 	tst.w	sl, #268435456	; 0x10000000
 8001298:	d04b      	beq.n	8001332 <HAL_GPIO_Init+0x12a>
 800129a:	69bd      	ldr	r5, [r7, #24]
 800129c:	f026 0803 	bic.w	r8, r6, #3
 80012a0:	f045 0501 	orr.w	r5, r5, #1
 80012a4:	61bd      	str	r5, [r7, #24]
 80012a6:	69bd      	ldr	r5, [r7, #24]
 80012a8:	f108 4880 	add.w	r8, r8, #1073741824	; 0x40000000
 80012ac:	f005 0501 	and.w	r5, r5, #1
 80012b0:	9501      	str	r5, [sp, #4]
 80012b2:	f508 3880 	add.w	r8, r8, #65536	; 0x10000
 80012b6:	f006 0b03 	and.w	fp, r6, #3
 80012ba:	9d01      	ldr	r5, [sp, #4]
 80012bc:	ea4f 0b8b 	mov.w	fp, fp, lsl #2
 80012c0:	f8d8 5008 	ldr.w	r5, [r8, #8]
 80012c4:	fa09 f90b 	lsl.w	r9, r9, fp
 80012c8:	ea25 0909 	bic.w	r9, r5, r9
 80012cc:	4d39      	ldr	r5, [pc, #228]	; (80013b4 <HAL_GPIO_Init+0x1ac>)
 80012ce:	42a8      	cmp	r0, r5
 80012d0:	d061      	beq.n	8001396 <HAL_GPIO_Init+0x18e>
 80012d2:	f505 6580 	add.w	r5, r5, #1024	; 0x400
 80012d6:	42a8      	cmp	r0, r5
 80012d8:	d05f      	beq.n	800139a <HAL_GPIO_Init+0x192>
 80012da:	f505 6580 	add.w	r5, r5, #1024	; 0x400
 80012de:	42a8      	cmp	r0, r5
 80012e0:	d05d      	beq.n	800139e <HAL_GPIO_Init+0x196>
 80012e2:	f505 6580 	add.w	r5, r5, #1024	; 0x400
 80012e6:	42a8      	cmp	r0, r5
 80012e8:	bf0c      	ite	eq
 80012ea:	2503      	moveq	r5, #3
 80012ec:	2504      	movne	r5, #4
 80012ee:	fa05 f50b 	lsl.w	r5, r5, fp
 80012f2:	ea45 0509 	orr.w	r5, r5, r9
 80012f6:	f8c8 5008 	str.w	r5, [r8, #8]
 80012fa:	681d      	ldr	r5, [r3, #0]
 80012fc:	f41a 3f80 	tst.w	sl, #65536	; 0x10000
 8001300:	bf14      	ite	ne
 8001302:	4325      	orrne	r5, r4
 8001304:	43a5      	biceq	r5, r4
 8001306:	601d      	str	r5, [r3, #0]
 8001308:	685d      	ldr	r5, [r3, #4]
 800130a:	f41a 3f00 	tst.w	sl, #131072	; 0x20000
 800130e:	bf14      	ite	ne
 8001310:	4325      	orrne	r5, r4
 8001312:	43a5      	biceq	r5, r4
 8001314:	605d      	str	r5, [r3, #4]
 8001316:	689d      	ldr	r5, [r3, #8]
 8001318:	f41a 1f80 	tst.w	sl, #1048576	; 0x100000
 800131c:	bf14      	ite	ne
 800131e:	4325      	orrne	r5, r4
 8001320:	43a5      	biceq	r5, r4
 8001322:	609d      	str	r5, [r3, #8]
 8001324:	68dd      	ldr	r5, [r3, #12]
 8001326:	f41a 1f00 	tst.w	sl, #2097152	; 0x200000
 800132a:	bf14      	ite	ne
 800132c:	4325      	orrne	r5, r4
 800132e:	43a5      	biceq	r5, r4
 8001330:	60dd      	str	r5, [r3, #12]
 8001332:	3601      	adds	r6, #1
 8001334:	e772      	b.n	800121c <HAL_GPIO_Init+0x14>
 8001336:	f8df 9080 	ldr.w	r9, [pc, #128]	; 80013b8 <HAL_GPIO_Init+0x1b0>
 800133a:	454d      	cmp	r5, r9
 800133c:	d00c      	beq.n	8001358 <HAL_GPIO_Init+0x150>
 800133e:	d817      	bhi.n	8001370 <HAL_GPIO_Init+0x168>
 8001340:	f5a9 1980 	sub.w	r9, r9, #1048576	; 0x100000
 8001344:	454d      	cmp	r5, r9
 8001346:	d007      	beq.n	8001358 <HAL_GPIO_Init+0x150>
 8001348:	f509 2970 	add.w	r9, r9, #983040	; 0xf0000
 800134c:	454d      	cmp	r5, r9
 800134e:	d003      	beq.n	8001358 <HAL_GPIO_Init+0x150>
 8001350:	f5a9 1980 	sub.w	r9, r9, #1048576	; 0x100000
 8001354:	454d      	cmp	r5, r9
 8001356:	d183      	bne.n	8001260 <HAL_GPIO_Init+0x58>
 8001358:	688a      	ldr	r2, [r1, #8]
 800135a:	b1d2      	cbz	r2, 8001392 <HAL_GPIO_Init+0x18a>
 800135c:	2a01      	cmp	r2, #1
 800135e:	bf08      	it	eq
 8001360:	f8c0 8010 	streq.w	r8, [r0, #16]
 8001364:	f04f 0208 	mov.w	r2, #8
 8001368:	bf18      	it	ne
 800136a:	f8c0 8014 	strne.w	r8, [r0, #20]
 800136e:	e777      	b.n	8001260 <HAL_GPIO_Init+0x58>
 8001370:	4565      	cmp	r5, ip
 8001372:	d0f1      	beq.n	8001358 <HAL_GPIO_Init+0x150>
 8001374:	4575      	cmp	r5, lr
 8001376:	e7ee      	b.n	8001356 <HAL_GPIO_Init+0x14e>
 8001378:	68ca      	ldr	r2, [r1, #12]
 800137a:	e771      	b.n	8001260 <HAL_GPIO_Init+0x58>
 800137c:	68ca      	ldr	r2, [r1, #12]
 800137e:	3204      	adds	r2, #4
 8001380:	e76e      	b.n	8001260 <HAL_GPIO_Init+0x58>
 8001382:	68ca      	ldr	r2, [r1, #12]
 8001384:	3208      	adds	r2, #8
 8001386:	e76b      	b.n	8001260 <HAL_GPIO_Init+0x58>
 8001388:	68ca      	ldr	r2, [r1, #12]
 800138a:	320c      	adds	r2, #12
 800138c:	e768      	b.n	8001260 <HAL_GPIO_Init+0x58>
 800138e:	2200      	movs	r2, #0
 8001390:	e766      	b.n	8001260 <HAL_GPIO_Init+0x58>
 8001392:	2204      	movs	r2, #4
 8001394:	e764      	b.n	8001260 <HAL_GPIO_Init+0x58>
 8001396:	2500      	movs	r5, #0
 8001398:	e7a9      	b.n	80012ee <HAL_GPIO_Init+0xe6>
 800139a:	2501      	movs	r5, #1
 800139c:	e7a7      	b.n	80012ee <HAL_GPIO_Init+0xe6>
 800139e:	2502      	movs	r5, #2
 80013a0:	e7a5      	b.n	80012ee <HAL_GPIO_Init+0xe6>
 80013a2:	bf00      	nop
 80013a4:	40021000 	.word	0x40021000
 80013a8:	40010400 	.word	0x40010400
 80013ac:	10310000 	.word	0x10310000
 80013b0:	10320000 	.word	0x10320000
 80013b4:	40010800 	.word	0x40010800
 80013b8:	10220000 	.word	0x10220000

080013bc <HAL_GPIO_ReadPin>:
 80013bc:	6883      	ldr	r3, [r0, #8]
 80013be:	4219      	tst	r1, r3
 80013c0:	bf14      	ite	ne
 80013c2:	2001      	movne	r0, #1
 80013c4:	2000      	moveq	r0, #0
 80013c6:	4770      	bx	lr

080013c8 <HAL_GPIO_EXTI_IRQHandler>:
 80013c8:	4a04      	ldr	r2, [pc, #16]	; (80013dc <HAL_GPIO_EXTI_IRQHandler+0x14>)
 80013ca:	b508      	push	{r3, lr}
 80013cc:	6951      	ldr	r1, [r2, #20]
 80013ce:	4201      	tst	r1, r0
 80013d0:	d002      	beq.n	80013d8 <HAL_GPIO_EXTI_IRQHandler+0x10>
 80013d2:	6150      	str	r0, [r2, #20]
 80013d4:	f7ff f90e 	bl	80005f4 <HAL_GPIO_EXTI_Callback>
 80013d8:	bd08      	pop	{r3, pc}
 80013da:	bf00      	nop
 80013dc:	40010400 	.word	0x40010400

080013e0 <I2C_IsAcknowledgeFailed>:
 80013e0:	6801      	ldr	r1, [r0, #0]
 80013e2:	2200      	movs	r2, #0
 80013e4:	694b      	ldr	r3, [r1, #20]
 80013e6:	f413 6380 	ands.w	r3, r3, #1024	; 0x400
 80013ea:	d010      	beq.n	800140e <I2C_IsAcknowledgeFailed+0x2e>
 80013ec:	f46f 6380 	mvn.w	r3, #1024	; 0x400
 80013f0:	614b      	str	r3, [r1, #20]
 80013f2:	2320      	movs	r3, #32
 80013f4:	6302      	str	r2, [r0, #48]	; 0x30
 80013f6:	f880 303d 	strb.w	r3, [r0, #61]	; 0x3d
 80013fa:	f880 203e 	strb.w	r2, [r0, #62]	; 0x3e
 80013fe:	6c03      	ldr	r3, [r0, #64]	; 0x40
 8001400:	f880 203c 	strb.w	r2, [r0, #60]	; 0x3c
 8001404:	f043 0304 	orr.w	r3, r3, #4
 8001408:	6403      	str	r3, [r0, #64]	; 0x40
 800140a:	2001      	movs	r0, #1
 800140c:	4770      	bx	lr
 800140e:	4618      	mov	r0, r3
 8001410:	4770      	bx	lr

08001412 <I2C_WaitOnFlagUntilTimeout>:
 8001412:	e92d 46f8 	stmdb	sp!, {r3, r4, r5, r6, r7, r9, sl, lr}
 8001416:	4606      	mov	r6, r0
 8001418:	460f      	mov	r7, r1
 800141a:	4691      	mov	r9, r2
 800141c:	461d      	mov	r5, r3
 800141e:	ea4f 4a11 	mov.w	sl, r1, lsr #16
 8001422:	6833      	ldr	r3, [r6, #0]
 8001424:	f1ba 0f01 	cmp.w	sl, #1
 8001428:	bf0c      	ite	eq
 800142a:	695c      	ldreq	r4, [r3, #20]
 800142c:	699c      	ldrne	r4, [r3, #24]
 800142e:	ea27 0404 	bic.w	r4, r7, r4
 8001432:	b2a4      	uxth	r4, r4
 8001434:	fab4 f484 	clz	r4, r4
 8001438:	0964      	lsrs	r4, r4, #5
 800143a:	45a1      	cmp	r9, r4
 800143c:	d001      	beq.n	8001442 <I2C_WaitOnFlagUntilTimeout+0x30>
 800143e:	2000      	movs	r0, #0
 8001440:	e017      	b.n	8001472 <I2C_WaitOnFlagUntilTimeout+0x60>
 8001442:	1c6a      	adds	r2, r5, #1
 8001444:	d0ee      	beq.n	8001424 <I2C_WaitOnFlagUntilTimeout+0x12>
 8001446:	f7ff fe51 	bl	80010ec <HAL_GetTick>
 800144a:	9b08      	ldr	r3, [sp, #32]
 800144c:	1ac0      	subs	r0, r0, r3
 800144e:	42a8      	cmp	r0, r5
 8001450:	d801      	bhi.n	8001456 <I2C_WaitOnFlagUntilTimeout+0x44>
 8001452:	2d00      	cmp	r5, #0
 8001454:	d1e5      	bne.n	8001422 <I2C_WaitOnFlagUntilTimeout+0x10>
 8001456:	2300      	movs	r3, #0
 8001458:	2220      	movs	r2, #32
 800145a:	2001      	movs	r0, #1
 800145c:	6333      	str	r3, [r6, #48]	; 0x30
 800145e:	f886 203d 	strb.w	r2, [r6, #61]	; 0x3d
 8001462:	f886 303e 	strb.w	r3, [r6, #62]	; 0x3e
 8001466:	6c32      	ldr	r2, [r6, #64]	; 0x40
 8001468:	f886 303c 	strb.w	r3, [r6, #60]	; 0x3c
 800146c:	f042 0220 	orr.w	r2, r2, #32
 8001470:	6432      	str	r2, [r6, #64]	; 0x40
 8001472:	e8bd 86f8 	ldmia.w	sp!, {r3, r4, r5, r6, r7, r9, sl, pc}

08001476 <I2C_WaitOnMasterAddressFlagUntilTimeout>:
 8001476:	e92d 41f0 	stmdb	sp!, {r4, r5, r6, r7, r8, lr}
 800147a:	4604      	mov	r4, r0
 800147c:	460f      	mov	r7, r1
 800147e:	4616      	mov	r6, r2
 8001480:	4698      	mov	r8, r3
 8001482:	6825      	ldr	r5, [r4, #0]
 8001484:	6968      	ldr	r0, [r5, #20]
 8001486:	ea27 0000 	bic.w	r0, r7, r0
 800148a:	b280      	uxth	r0, r0
 800148c:	b1b8      	cbz	r0, 80014be <I2C_WaitOnMasterAddressFlagUntilTimeout+0x48>
 800148e:	696b      	ldr	r3, [r5, #20]
 8001490:	055a      	lsls	r2, r3, #21
 8001492:	d516      	bpl.n	80014c2 <I2C_WaitOnMasterAddressFlagUntilTimeout+0x4c>
 8001494:	682b      	ldr	r3, [r5, #0]
 8001496:	2220      	movs	r2, #32
 8001498:	f443 7300 	orr.w	r3, r3, #512	; 0x200
 800149c:	602b      	str	r3, [r5, #0]
 800149e:	f46f 6380 	mvn.w	r3, #1024	; 0x400
 80014a2:	616b      	str	r3, [r5, #20]
 80014a4:	2300      	movs	r3, #0
 80014a6:	6323      	str	r3, [r4, #48]	; 0x30
 80014a8:	f884 203d 	strb.w	r2, [r4, #61]	; 0x3d
 80014ac:	f884 303e 	strb.w	r3, [r4, #62]	; 0x3e
 80014b0:	6c22      	ldr	r2, [r4, #64]	; 0x40
 80014b2:	f042 0204 	orr.w	r2, r2, #4
 80014b6:	2001      	movs	r0, #1
 80014b8:	6422      	str	r2, [r4, #64]	; 0x40
 80014ba:	f884 303c 	strb.w	r3, [r4, #60]	; 0x3c
 80014be:	e8bd 81f0 	ldmia.w	sp!, {r4, r5, r6, r7, r8, pc}
 80014c2:	1c73      	adds	r3, r6, #1
 80014c4:	d0de      	beq.n	8001484 <I2C_WaitOnMasterAddressFlagUntilTimeout+0xe>
 80014c6:	f7ff fe11 	bl	80010ec <HAL_GetTick>
 80014ca:	eba0 0008 	sub.w	r0, r0, r8
 80014ce:	42b0      	cmp	r0, r6
 80014d0:	d801      	bhi.n	80014d6 <I2C_WaitOnMasterAddressFlagUntilTimeout+0x60>
 80014d2:	2e00      	cmp	r6, #0
 80014d4:	d1d5      	bne.n	8001482 <I2C_WaitOnMasterAddressFlagUntilTimeout+0xc>
 80014d6:	2300      	movs	r3, #0
 80014d8:	2220      	movs	r2, #32
 80014da:	6323      	str	r3, [r4, #48]	; 0x30
 80014dc:	f884 203d 	strb.w	r2, [r4, #61]	; 0x3d
 80014e0:	f884 303e 	strb.w	r3, [r4, #62]	; 0x3e
 80014e4:	6c22      	ldr	r2, [r4, #64]	; 0x40
 80014e6:	f042 0220 	orr.w	r2, r2, #32
 80014ea:	e7e4      	b.n	80014b6 <I2C_WaitOnMasterAddressFlagUntilTimeout+0x40>

080014ec <I2C_WaitOnBTFFlagUntilTimeout>:
 80014ec:	b570      	push	{r4, r5, r6, lr}
 80014ee:	4604      	mov	r4, r0
 80014f0:	460d      	mov	r5, r1
 80014f2:	4616      	mov	r6, r2
 80014f4:	6823      	ldr	r3, [r4, #0]
 80014f6:	695b      	ldr	r3, [r3, #20]
 80014f8:	075b      	lsls	r3, r3, #29
 80014fa:	d501      	bpl.n	8001500 <I2C_WaitOnBTFFlagUntilTimeout+0x14>
 80014fc:	2000      	movs	r0, #0
 80014fe:	bd70      	pop	{r4, r5, r6, pc}
 8001500:	4620      	mov	r0, r4
 8001502:	f7ff ff6d 	bl	80013e0 <I2C_IsAcknowledgeFailed>
 8001506:	b9a8      	cbnz	r0, 8001534 <I2C_WaitOnBTFFlagUntilTimeout+0x48>
 8001508:	1c6a      	adds	r2, r5, #1
 800150a:	d0f3      	beq.n	80014f4 <I2C_WaitOnBTFFlagUntilTimeout+0x8>
 800150c:	f7ff fdee 	bl	80010ec <HAL_GetTick>
 8001510:	1b80      	subs	r0, r0, r6
 8001512:	42a8      	cmp	r0, r5
 8001514:	d801      	bhi.n	800151a <I2C_WaitOnBTFFlagUntilTimeout+0x2e>
 8001516:	2d00      	cmp	r5, #0
 8001518:	d1ec      	bne.n	80014f4 <I2C_WaitOnBTFFlagUntilTimeout+0x8>
 800151a:	2300      	movs	r3, #0
 800151c:	2220      	movs	r2, #32
 800151e:	6323      	str	r3, [r4, #48]	; 0x30
 8001520:	f884 203d 	strb.w	r2, [r4, #61]	; 0x3d
 8001524:	f884 303e 	strb.w	r3, [r4, #62]	; 0x3e
 8001528:	6c22      	ldr	r2, [r4, #64]	; 0x40
 800152a:	f884 303c 	strb.w	r3, [r4, #60]	; 0x3c
 800152e:	f042 0220 	orr.w	r2, r2, #32
 8001532:	6422      	str	r2, [r4, #64]	; 0x40
 8001534:	2001      	movs	r0, #1
 8001536:	e7e2      	b.n	80014fe <I2C_WaitOnBTFFlagUntilTimeout+0x12>

08001538 <I2C_WaitOnTXEFlagUntilTimeout>:
 8001538:	b570      	push	{r4, r5, r6, lr}
 800153a:	4604      	mov	r4, r0
 800153c:	460d      	mov	r5, r1
 800153e:	4616      	mov	r6, r2
 8001540:	6823      	ldr	r3, [r4, #0]
 8001542:	695b      	ldr	r3, [r3, #20]
 8001544:	061b      	lsls	r3, r3, #24
 8001546:	d501      	bpl.n	800154c <I2C_WaitOnTXEFlagUntilTimeout+0x14>
 8001548:	2000      	movs	r0, #0
 800154a:	bd70      	pop	{r4, r5, r6, pc}
 800154c:	4620      	mov	r0, r4
 800154e:	f7ff ff47 	bl	80013e0 <I2C_IsAcknowledgeFailed>
 8001552:	b9a8      	cbnz	r0, 8001580 <I2C_WaitOnTXEFlagUntilTimeout+0x48>
 8001554:	1c6a      	adds	r2, r5, #1
 8001556:	d0f3      	beq.n	8001540 <I2C_WaitOnTXEFlagUntilTimeout+0x8>
 8001558:	f7ff fdc8 	bl	80010ec <HAL_GetTick>
 800155c:	1b80      	subs	r0, r0, r6
 800155e:	42a8      	cmp	r0, r5
 8001560:	d801      	bhi.n	8001566 <I2C_WaitOnTXEFlagUntilTimeout+0x2e>
 8001562:	2d00      	cmp	r5, #0
 8001564:	d1ec      	bne.n	8001540 <I2C_WaitOnTXEFlagUntilTimeout+0x8>
 8001566:	2300      	movs	r3, #0
 8001568:	2220      	movs	r2, #32
 800156a:	6323      	str	r3, [r4, #48]	; 0x30
 800156c:	f884 203d 	strb.w	r2, [r4, #61]	; 0x3d
 8001570:	f884 303e 	strb.w	r3, [r4, #62]	; 0x3e
 8001574:	6c22      	ldr	r2, [r4, #64]	; 0x40
 8001576:	f884 303c 	strb.w	r3, [r4, #60]	; 0x3c
 800157a:	f042 0220 	orr.w	r2, r2, #32
 800157e:	6422      	str	r2, [r4, #64]	; 0x40
 8001580:	2001      	movs	r0, #1
 8001582:	e7e2      	b.n	800154a <I2C_WaitOnTXEFlagUntilTimeout+0x12>

08001584 <HAL_I2C_Init>:
 8001584:	b570      	push	{r4, r5, r6, lr}
 8001586:	4604      	mov	r4, r0
 8001588:	b908      	cbnz	r0, 800158e <HAL_I2C_Init+0xa>
 800158a:	2001      	movs	r0, #1
 800158c:	bd70      	pop	{r4, r5, r6, pc}
 800158e:	f890 303d 	ldrb.w	r3, [r0, #61]	; 0x3d
 8001592:	f003 02ff 	and.w	r2, r3, #255	; 0xff
 8001596:	b91b      	cbnz	r3, 80015a0 <HAL_I2C_Init+0x1c>
 8001598:	f880 203c 	strb.w	r2, [r0, #60]	; 0x3c
 800159c:	f7ff fbb6 	bl	8000d0c <HAL_I2C_MspInit>
 80015a0:	2324      	movs	r3, #36	; 0x24
 80015a2:	6822      	ldr	r2, [r4, #0]
 80015a4:	f884 303d 	strb.w	r3, [r4, #61]	; 0x3d
 80015a8:	6813      	ldr	r3, [r2, #0]
 80015aa:	f023 0301 	bic.w	r3, r3, #1
 80015ae:	6013      	str	r3, [r2, #0]
 80015b0:	f000 fbd2 	bl	8001d58 <HAL_RCC_GetPCLK1Freq>
 80015b4:	4b3f      	ldr	r3, [pc, #252]	; (80016b4 <HAL_I2C_Init+0x130>)
 80015b6:	6865      	ldr	r5, [r4, #4]
 80015b8:	429d      	cmp	r5, r3
 80015ba:	bf94      	ite	ls
 80015bc:	4b3e      	ldrls	r3, [pc, #248]	; (80016b8 <HAL_I2C_Init+0x134>)
 80015be:	4b3f      	ldrhi	r3, [pc, #252]	; (80016bc <HAL_I2C_Init+0x138>)
 80015c0:	4298      	cmp	r0, r3
 80015c2:	bf8c      	ite	hi
 80015c4:	2300      	movhi	r3, #0
 80015c6:	2301      	movls	r3, #1
 80015c8:	2b00      	cmp	r3, #0
 80015ca:	d1de      	bne.n	800158a <HAL_I2C_Init+0x6>
 80015cc:	4e39      	ldr	r6, [pc, #228]	; (80016b4 <HAL_I2C_Init+0x130>)
 80015ce:	4b3c      	ldr	r3, [pc, #240]	; (80016c0 <HAL_I2C_Init+0x13c>)
 80015d0:	42b5      	cmp	r5, r6
 80015d2:	fbb0 f3f3 	udiv	r3, r0, r3
 80015d6:	bf88      	it	hi
 80015d8:	f44f 7696 	movhi.w	r6, #300	; 0x12c
 80015dc:	6822      	ldr	r2, [r4, #0]
 80015de:	6851      	ldr	r1, [r2, #4]
 80015e0:	f021 013f 	bic.w	r1, r1, #63	; 0x3f
 80015e4:	ea41 0103 	orr.w	r1, r1, r3
 80015e8:	bf82      	ittt	hi
 80015ea:	4373      	mulhi	r3, r6
 80015ec:	f44f 767a 	movhi.w	r6, #1000	; 0x3e8
 80015f0:	fbb3 f3f6 	udivhi	r3, r3, r6
 80015f4:	6051      	str	r1, [r2, #4]
 80015f6:	6a11      	ldr	r1, [r2, #32]
 80015f8:	3301      	adds	r3, #1
 80015fa:	f021 013f 	bic.w	r1, r1, #63	; 0x3f
 80015fe:	430b      	orrs	r3, r1
 8001600:	6213      	str	r3, [r2, #32]
 8001602:	69d1      	ldr	r1, [r2, #28]
 8001604:	1e43      	subs	r3, r0, #1
 8001606:	482b      	ldr	r0, [pc, #172]	; (80016b4 <HAL_I2C_Init+0x130>)
 8001608:	f421 414f 	bic.w	r1, r1, #52992	; 0xcf00
 800160c:	4285      	cmp	r5, r0
 800160e:	f021 01ff 	bic.w	r1, r1, #255	; 0xff
 8001612:	d832      	bhi.n	800167a <HAL_I2C_Init+0xf6>
 8001614:	006d      	lsls	r5, r5, #1
 8001616:	fbb3 f3f5 	udiv	r3, r3, r5
 800161a:	f640 70fc 	movw	r0, #4092	; 0xffc
 800161e:	3301      	adds	r3, #1
 8001620:	4203      	tst	r3, r0
 8001622:	d042      	beq.n	80016aa <HAL_I2C_Init+0x126>
 8001624:	f3c3 030b 	ubfx	r3, r3, #0, #12
 8001628:	4319      	orrs	r1, r3
 800162a:	61d1      	str	r1, [r2, #28]
 800162c:	6811      	ldr	r1, [r2, #0]
 800162e:	e9d4 3007 	ldrd	r3, r0, [r4, #28]
 8001632:	f021 01c0 	bic.w	r1, r1, #192	; 0xc0
 8001636:	4303      	orrs	r3, r0
 8001638:	430b      	orrs	r3, r1
 800163a:	6013      	str	r3, [r2, #0]
 800163c:	6891      	ldr	r1, [r2, #8]
 800163e:	e9d4 0303 	ldrd	r0, r3, [r4, #12]
 8001642:	f421 4103 	bic.w	r1, r1, #33536	; 0x8300
 8001646:	4303      	orrs	r3, r0
 8001648:	f021 01ff 	bic.w	r1, r1, #255	; 0xff
 800164c:	430b      	orrs	r3, r1
 800164e:	6093      	str	r3, [r2, #8]
 8001650:	68d1      	ldr	r1, [r2, #12]
 8001652:	e9d4 3005 	ldrd	r3, r0, [r4, #20]
 8001656:	f021 01ff 	bic.w	r1, r1, #255	; 0xff
 800165a:	4303      	orrs	r3, r0
 800165c:	430b      	orrs	r3, r1
 800165e:	60d3      	str	r3, [r2, #12]
 8001660:	6813      	ldr	r3, [r2, #0]
 8001662:	2000      	movs	r0, #0
 8001664:	f043 0301 	orr.w	r3, r3, #1
 8001668:	6013      	str	r3, [r2, #0]
 800166a:	2320      	movs	r3, #32
 800166c:	6420      	str	r0, [r4, #64]	; 0x40
 800166e:	f884 303d 	strb.w	r3, [r4, #61]	; 0x3d
 8001672:	6320      	str	r0, [r4, #48]	; 0x30
 8001674:	f884 003e 	strb.w	r0, [r4, #62]	; 0x3e
 8001678:	e788      	b.n	800158c <HAL_I2C_Init+0x8>
 800167a:	68a0      	ldr	r0, [r4, #8]
 800167c:	b950      	cbnz	r0, 8001694 <HAL_I2C_Init+0x110>
 800167e:	eb05 0545 	add.w	r5, r5, r5, lsl #1
 8001682:	fbb3 f3f5 	udiv	r3, r3, r5
 8001686:	3301      	adds	r3, #1
 8001688:	f3c3 030b 	ubfx	r3, r3, #0, #12
 800168c:	b17b      	cbz	r3, 80016ae <HAL_I2C_Init+0x12a>
 800168e:	f443 4300 	orr.w	r3, r3, #32768	; 0x8000
 8001692:	e7c9      	b.n	8001628 <HAL_I2C_Init+0xa4>
 8001694:	2019      	movs	r0, #25
 8001696:	4368      	muls	r0, r5
 8001698:	fbb3 f3f0 	udiv	r3, r3, r0
 800169c:	3301      	adds	r3, #1
 800169e:	f3c3 030b 	ubfx	r3, r3, #0, #12
 80016a2:	b123      	cbz	r3, 80016ae <HAL_I2C_Init+0x12a>
 80016a4:	f443 4340 	orr.w	r3, r3, #49152	; 0xc000
 80016a8:	e7be      	b.n	8001628 <HAL_I2C_Init+0xa4>
 80016aa:	2304      	movs	r3, #4
 80016ac:	e7bc      	b.n	8001628 <HAL_I2C_Init+0xa4>
 80016ae:	2301      	movs	r3, #1
 80016b0:	e7ba      	b.n	8001628 <HAL_I2C_Init+0xa4>
 80016b2:	bf00      	nop
 80016b4:	000186a0 	.word	0x000186a0
 80016b8:	001e847f 	.word	0x001e847f
 80016bc:	003d08ff 	.word	0x003d08ff
 80016c0:	000f4240 	.word	0x000f4240

080016c4 <HAL_I2C_Master_Transmit>:
 80016c4:	e92d 43f0 	stmdb	sp!, {r4, r5, r6, r7, r8, r9, lr}
 80016c8:	4604      	mov	r4, r0
 80016ca:	b085      	sub	sp, #20
 80016cc:	4698      	mov	r8, r3
 80016ce:	460d      	mov	r5, r1
 80016d0:	4691      	mov	r9, r2
 80016d2:	9f0c      	ldr	r7, [sp, #48]	; 0x30
 80016d4:	f7ff fd0a 	bl	80010ec <HAL_GetTick>
 80016d8:	f894 303d 	ldrb.w	r3, [r4, #61]	; 0x3d
 80016dc:	4606      	mov	r6, r0
 80016de:	2b20      	cmp	r3, #32
 80016e0:	d004      	beq.n	80016ec <HAL_I2C_Master_Transmit+0x28>
 80016e2:	2502      	movs	r5, #2
 80016e4:	4628      	mov	r0, r5
 80016e6:	b005      	add	sp, #20
 80016e8:	e8bd 83f0 	ldmia.w	sp!, {r4, r5, r6, r7, r8, r9, pc}
 80016ec:	9000      	str	r0, [sp, #0]
 80016ee:	2319      	movs	r3, #25
 80016f0:	2201      	movs	r2, #1
 80016f2:	4620      	mov	r0, r4
 80016f4:	4958      	ldr	r1, [pc, #352]	; (8001858 <HAL_I2C_Master_Transmit+0x194>)
 80016f6:	f7ff fe8c 	bl	8001412 <I2C_WaitOnFlagUntilTimeout>
 80016fa:	2800      	cmp	r0, #0
 80016fc:	d1f1      	bne.n	80016e2 <HAL_I2C_Master_Transmit+0x1e>
 80016fe:	f894 303c 	ldrb.w	r3, [r4, #60]	; 0x3c
 8001702:	2b01      	cmp	r3, #1
 8001704:	d0ed      	beq.n	80016e2 <HAL_I2C_Master_Transmit+0x1e>
 8001706:	2301      	movs	r3, #1
 8001708:	6821      	ldr	r1, [r4, #0]
 800170a:	f884 303c 	strb.w	r3, [r4, #60]	; 0x3c
 800170e:	680b      	ldr	r3, [r1, #0]
 8001710:	07db      	lsls	r3, r3, #31
 8001712:	bf5e      	ittt	pl
 8001714:	680b      	ldrpl	r3, [r1, #0]
 8001716:	f043 0301 	orrpl.w	r3, r3, #1
 800171a:	600b      	strpl	r3, [r1, #0]
 800171c:	680b      	ldr	r3, [r1, #0]
 800171e:	f423 6300 	bic.w	r3, r3, #2048	; 0x800
 8001722:	600b      	str	r3, [r1, #0]
 8001724:	2321      	movs	r3, #33	; 0x21
 8001726:	f884 303d 	strb.w	r3, [r4, #61]	; 0x3d
 800172a:	2310      	movs	r3, #16
 800172c:	f884 303e 	strb.w	r3, [r4, #62]	; 0x3e
 8001730:	2300      	movs	r3, #0
 8001732:	6423      	str	r3, [r4, #64]	; 0x40
 8001734:	f8a4 802a 	strh.w	r8, [r4, #42]	; 0x2a
 8001738:	8d63      	ldrh	r3, [r4, #42]	; 0x2a
 800173a:	f8c4 9024 	str.w	r9, [r4, #36]	; 0x24
 800173e:	8523      	strh	r3, [r4, #40]	; 0x28
 8001740:	4b46      	ldr	r3, [pc, #280]	; (800185c <HAL_I2C_Master_Transmit+0x198>)
 8001742:	62e3      	str	r3, [r4, #44]	; 0x2c
 8001744:	6ae3      	ldr	r3, [r4, #44]	; 0x2c
 8001746:	2b08      	cmp	r3, #8
 8001748:	d004      	beq.n	8001754 <HAL_I2C_Master_Transmit+0x90>
 800174a:	2b01      	cmp	r3, #1
 800174c:	d002      	beq.n	8001754 <HAL_I2C_Master_Transmit+0x90>
 800174e:	f513 3f80 	cmn.w	r3, #65536	; 0x10000
 8001752:	d104      	bne.n	800175e <HAL_I2C_Master_Transmit+0x9a>
 8001754:	680b      	ldr	r3, [r1, #0]
 8001756:	f443 7380 	orr.w	r3, r3, #256	; 0x100
 800175a:	600b      	str	r3, [r1, #0]
 800175c:	e002      	b.n	8001764 <HAL_I2C_Master_Transmit+0xa0>
 800175e:	6b23      	ldr	r3, [r4, #48]	; 0x30
 8001760:	2b12      	cmp	r3, #18
 8001762:	d0f7      	beq.n	8001754 <HAL_I2C_Master_Transmit+0x90>
 8001764:	463b      	mov	r3, r7
 8001766:	2200      	movs	r2, #0
 8001768:	f04f 1101 	mov.w	r1, #65537	; 0x10001
 800176c:	4620      	mov	r0, r4
 800176e:	9600      	str	r6, [sp, #0]
 8001770:	f7ff fe4f 	bl	8001412 <I2C_WaitOnFlagUntilTimeout>
 8001774:	b108      	cbz	r0, 800177a <HAL_I2C_Master_Transmit+0xb6>
 8001776:	2501      	movs	r5, #1
 8001778:	e7b4      	b.n	80016e4 <HAL_I2C_Master_Transmit+0x20>
 800177a:	6923      	ldr	r3, [r4, #16]
 800177c:	6822      	ldr	r2, [r4, #0]
 800177e:	f5b3 4f80 	cmp.w	r3, #16384	; 0x4000
 8001782:	d121      	bne.n	80017c8 <HAL_I2C_Master_Transmit+0x104>
 8001784:	f005 05fe 	and.w	r5, r5, #254	; 0xfe
 8001788:	6115      	str	r5, [r2, #16]
 800178a:	4633      	mov	r3, r6
 800178c:	463a      	mov	r2, r7
 800178e:	4620      	mov	r0, r4
 8001790:	4933      	ldr	r1, [pc, #204]	; (8001860 <HAL_I2C_Master_Transmit+0x19c>)
 8001792:	f7ff fe70 	bl	8001476 <I2C_WaitOnMasterAddressFlagUntilTimeout>
 8001796:	4605      	mov	r5, r0
 8001798:	2800      	cmp	r0, #0
 800179a:	d1ec      	bne.n	8001776 <HAL_I2C_Master_Transmit+0xb2>
 800179c:	6823      	ldr	r3, [r4, #0]
 800179e:	9003      	str	r0, [sp, #12]
 80017a0:	695a      	ldr	r2, [r3, #20]
 80017a2:	9203      	str	r2, [sp, #12]
 80017a4:	699b      	ldr	r3, [r3, #24]
 80017a6:	9303      	str	r3, [sp, #12]
 80017a8:	9b03      	ldr	r3, [sp, #12]
 80017aa:	8d23      	ldrh	r3, [r4, #40]	; 0x28
 80017ac:	b9f3      	cbnz	r3, 80017ec <HAL_I2C_Master_Transmit+0x128>
 80017ae:	6821      	ldr	r1, [r4, #0]
 80017b0:	680a      	ldr	r2, [r1, #0]
 80017b2:	f442 7200 	orr.w	r2, r2, #512	; 0x200
 80017b6:	600a      	str	r2, [r1, #0]
 80017b8:	2220      	movs	r2, #32
 80017ba:	f884 303c 	strb.w	r3, [r4, #60]	; 0x3c
 80017be:	f884 203d 	strb.w	r2, [r4, #61]	; 0x3d
 80017c2:	f884 303e 	strb.w	r3, [r4, #62]	; 0x3e
 80017c6:	e78d      	b.n	80016e4 <HAL_I2C_Master_Transmit+0x20>
 80017c8:	11eb      	asrs	r3, r5, #7
 80017ca:	f003 0306 	and.w	r3, r3, #6
 80017ce:	f043 03f0 	orr.w	r3, r3, #240	; 0xf0
 80017d2:	6113      	str	r3, [r2, #16]
 80017d4:	4620      	mov	r0, r4
 80017d6:	4633      	mov	r3, r6
 80017d8:	463a      	mov	r2, r7
 80017da:	4922      	ldr	r1, [pc, #136]	; (8001864 <HAL_I2C_Master_Transmit+0x1a0>)
 80017dc:	f7ff fe4b 	bl	8001476 <I2C_WaitOnMasterAddressFlagUntilTimeout>
 80017e0:	2800      	cmp	r0, #0
 80017e2:	d1c8      	bne.n	8001776 <HAL_I2C_Master_Transmit+0xb2>
 80017e4:	6823      	ldr	r3, [r4, #0]
 80017e6:	b2ed      	uxtb	r5, r5
 80017e8:	611d      	str	r5, [r3, #16]
 80017ea:	e7ce      	b.n	800178a <HAL_I2C_Master_Transmit+0xc6>
 80017ec:	4632      	mov	r2, r6
 80017ee:	4639      	mov	r1, r7
 80017f0:	4620      	mov	r0, r4
 80017f2:	f7ff fea1 	bl	8001538 <I2C_WaitOnTXEFlagUntilTimeout>
 80017f6:	b140      	cbz	r0, 800180a <HAL_I2C_Master_Transmit+0x146>
 80017f8:	6c23      	ldr	r3, [r4, #64]	; 0x40
 80017fa:	2b04      	cmp	r3, #4
 80017fc:	bf01      	itttt	eq
 80017fe:	6822      	ldreq	r2, [r4, #0]
 8001800:	6813      	ldreq	r3, [r2, #0]
 8001802:	f443 7300 	orreq.w	r3, r3, #512	; 0x200
 8001806:	6013      	streq	r3, [r2, #0]
 8001808:	e7b5      	b.n	8001776 <HAL_I2C_Master_Transmit+0xb2>
 800180a:	6a63      	ldr	r3, [r4, #36]	; 0x24
 800180c:	6820      	ldr	r0, [r4, #0]
 800180e:	461a      	mov	r2, r3
 8001810:	f812 1b01 	ldrb.w	r1, [r2], #1
 8001814:	6101      	str	r1, [r0, #16]
 8001816:	6262      	str	r2, [r4, #36]	; 0x24
 8001818:	8d62      	ldrh	r2, [r4, #42]	; 0x2a
 800181a:	3a01      	subs	r2, #1
 800181c:	b292      	uxth	r2, r2
 800181e:	8562      	strh	r2, [r4, #42]	; 0x2a
 8001820:	8d22      	ldrh	r2, [r4, #40]	; 0x28
 8001822:	f8d0 c014 	ldr.w	ip, [r0, #20]
 8001826:	1e51      	subs	r1, r2, #1
 8001828:	b289      	uxth	r1, r1
 800182a:	f01c 0f04 	tst.w	ip, #4
 800182e:	8521      	strh	r1, [r4, #40]	; 0x28
 8001830:	d00a      	beq.n	8001848 <HAL_I2C_Master_Transmit+0x184>
 8001832:	b149      	cbz	r1, 8001848 <HAL_I2C_Master_Transmit+0x184>
 8001834:	7859      	ldrb	r1, [r3, #1]
 8001836:	3302      	adds	r3, #2
 8001838:	6101      	str	r1, [r0, #16]
 800183a:	6263      	str	r3, [r4, #36]	; 0x24
 800183c:	8d63      	ldrh	r3, [r4, #42]	; 0x2a
 800183e:	3a02      	subs	r2, #2
 8001840:	3b01      	subs	r3, #1
 8001842:	b29b      	uxth	r3, r3
 8001844:	8563      	strh	r3, [r4, #42]	; 0x2a
 8001846:	8522      	strh	r2, [r4, #40]	; 0x28
 8001848:	4632      	mov	r2, r6
 800184a:	4639      	mov	r1, r7
 800184c:	4620      	mov	r0, r4
 800184e:	f7ff fe4d 	bl	80014ec <I2C_WaitOnBTFFlagUntilTimeout>
 8001852:	2800      	cmp	r0, #0
 8001854:	d0a9      	beq.n	80017aa <HAL_I2C_Master_Transmit+0xe6>
 8001856:	e7cf      	b.n	80017f8 <HAL_I2C_Master_Transmit+0x134>
 8001858:	00100002 	.word	0x00100002
 800185c:	ffff0000 	.word	0xffff0000
 8001860:	00010002 	.word	0x00010002
 8001864:	00010008 	.word	0x00010008

08001868 <HAL_PWR_EnableBkUpAccess>:
 8001868:	2201      	movs	r2, #1
 800186a:	4b01      	ldr	r3, [pc, #4]	; (8001870 <HAL_PWR_EnableBkUpAccess+0x8>)
 800186c:	621a      	str	r2, [r3, #32]
 800186e:	4770      	bx	lr
 8001870:	420e0000 	.word	0x420e0000

08001874 <HAL_RCC_OscConfig>:
 8001874:	e92d 41f3 	stmdb	sp!, {r0, r1, r4, r5, r6, r7, r8, lr}
 8001878:	4605      	mov	r5, r0
 800187a:	b338      	cbz	r0, 80018cc <HAL_RCC_OscConfig+0x58>
 800187c:	6803      	ldr	r3, [r0, #0]
 800187e:	07db      	lsls	r3, r3, #31
 8001880:	d410      	bmi.n	80018a4 <HAL_RCC_OscConfig+0x30>
 8001882:	682b      	ldr	r3, [r5, #0]
 8001884:	079f      	lsls	r7, r3, #30
 8001886:	d45e      	bmi.n	8001946 <HAL_RCC_OscConfig+0xd2>
 8001888:	682b      	ldr	r3, [r5, #0]
 800188a:	0719      	lsls	r1, r3, #28
 800188c:	f100 8095 	bmi.w	80019ba <HAL_RCC_OscConfig+0x146>
 8001890:	682b      	ldr	r3, [r5, #0]
 8001892:	075a      	lsls	r2, r3, #29
 8001894:	f100 80c1 	bmi.w	8001a1a <HAL_RCC_OscConfig+0x1a6>
 8001898:	69e8      	ldr	r0, [r5, #28]
 800189a:	2800      	cmp	r0, #0
 800189c:	f040 812c 	bne.w	8001af8 <HAL_RCC_OscConfig+0x284>
 80018a0:	2000      	movs	r0, #0
 80018a2:	e029      	b.n	80018f8 <HAL_RCC_OscConfig+0x84>
 80018a4:	4c90      	ldr	r4, [pc, #576]	; (8001ae8 <HAL_RCC_OscConfig+0x274>)
 80018a6:	6863      	ldr	r3, [r4, #4]
 80018a8:	f003 030c 	and.w	r3, r3, #12
 80018ac:	2b04      	cmp	r3, #4
 80018ae:	d007      	beq.n	80018c0 <HAL_RCC_OscConfig+0x4c>
 80018b0:	6863      	ldr	r3, [r4, #4]
 80018b2:	f003 030c 	and.w	r3, r3, #12
 80018b6:	2b08      	cmp	r3, #8
 80018b8:	d10a      	bne.n	80018d0 <HAL_RCC_OscConfig+0x5c>
 80018ba:	6863      	ldr	r3, [r4, #4]
 80018bc:	03de      	lsls	r6, r3, #15
 80018be:	d507      	bpl.n	80018d0 <HAL_RCC_OscConfig+0x5c>
 80018c0:	6823      	ldr	r3, [r4, #0]
 80018c2:	039c      	lsls	r4, r3, #14
 80018c4:	d5dd      	bpl.n	8001882 <HAL_RCC_OscConfig+0xe>
 80018c6:	686b      	ldr	r3, [r5, #4]
 80018c8:	2b00      	cmp	r3, #0
 80018ca:	d1da      	bne.n	8001882 <HAL_RCC_OscConfig+0xe>
 80018cc:	2001      	movs	r0, #1
 80018ce:	e013      	b.n	80018f8 <HAL_RCC_OscConfig+0x84>
 80018d0:	686b      	ldr	r3, [r5, #4]
 80018d2:	f5b3 3f80 	cmp.w	r3, #65536	; 0x10000
 80018d6:	d112      	bne.n	80018fe <HAL_RCC_OscConfig+0x8a>
 80018d8:	6823      	ldr	r3, [r4, #0]
 80018da:	f443 3380 	orr.w	r3, r3, #65536	; 0x10000
 80018de:	6023      	str	r3, [r4, #0]
 80018e0:	f7ff fc04 	bl	80010ec <HAL_GetTick>
 80018e4:	4606      	mov	r6, r0
 80018e6:	6823      	ldr	r3, [r4, #0]
 80018e8:	0398      	lsls	r0, r3, #14
 80018ea:	d4ca      	bmi.n	8001882 <HAL_RCC_OscConfig+0xe>
 80018ec:	f7ff fbfe 	bl	80010ec <HAL_GetTick>
 80018f0:	1b80      	subs	r0, r0, r6
 80018f2:	2864      	cmp	r0, #100	; 0x64
 80018f4:	d9f7      	bls.n	80018e6 <HAL_RCC_OscConfig+0x72>
 80018f6:	2003      	movs	r0, #3
 80018f8:	b002      	add	sp, #8
 80018fa:	e8bd 81f0 	ldmia.w	sp!, {r4, r5, r6, r7, r8, pc}
 80018fe:	b99b      	cbnz	r3, 8001928 <HAL_RCC_OscConfig+0xb4>
 8001900:	6823      	ldr	r3, [r4, #0]
 8001902:	f423 3380 	bic.w	r3, r3, #65536	; 0x10000
 8001906:	6023      	str	r3, [r4, #0]
 8001908:	6823      	ldr	r3, [r4, #0]
 800190a:	f423 2380 	bic.w	r3, r3, #262144	; 0x40000
 800190e:	6023      	str	r3, [r4, #0]
 8001910:	f7ff fbec 	bl	80010ec <HAL_GetTick>
 8001914:	4606      	mov	r6, r0
 8001916:	6823      	ldr	r3, [r4, #0]
 8001918:	0399      	lsls	r1, r3, #14
 800191a:	d5b2      	bpl.n	8001882 <HAL_RCC_OscConfig+0xe>
 800191c:	f7ff fbe6 	bl	80010ec <HAL_GetTick>
 8001920:	1b80      	subs	r0, r0, r6
 8001922:	2864      	cmp	r0, #100	; 0x64
 8001924:	d9f7      	bls.n	8001916 <HAL_RCC_OscConfig+0xa2>
 8001926:	e7e6      	b.n	80018f6 <HAL_RCC_OscConfig+0x82>
 8001928:	f5b3 2fa0 	cmp.w	r3, #327680	; 0x50000
 800192c:	6823      	ldr	r3, [r4, #0]
 800192e:	d103      	bne.n	8001938 <HAL_RCC_OscConfig+0xc4>
 8001930:	f443 2380 	orr.w	r3, r3, #262144	; 0x40000
 8001934:	6023      	str	r3, [r4, #0]
 8001936:	e7cf      	b.n	80018d8 <HAL_RCC_OscConfig+0x64>
 8001938:	f423 3380 	bic.w	r3, r3, #65536	; 0x10000
 800193c:	6023      	str	r3, [r4, #0]
 800193e:	6823      	ldr	r3, [r4, #0]
 8001940:	f423 2380 	bic.w	r3, r3, #262144	; 0x40000
 8001944:	e7cb      	b.n	80018de <HAL_RCC_OscConfig+0x6a>
 8001946:	4c68      	ldr	r4, [pc, #416]	; (8001ae8 <HAL_RCC_OscConfig+0x274>)
 8001948:	6863      	ldr	r3, [r4, #4]
 800194a:	f013 0f0c 	tst.w	r3, #12
 800194e:	d007      	beq.n	8001960 <HAL_RCC_OscConfig+0xec>
 8001950:	6863      	ldr	r3, [r4, #4]
 8001952:	f003 030c 	and.w	r3, r3, #12
 8001956:	2b08      	cmp	r3, #8
 8001958:	d110      	bne.n	800197c <HAL_RCC_OscConfig+0x108>
 800195a:	6863      	ldr	r3, [r4, #4]
 800195c:	03da      	lsls	r2, r3, #15
 800195e:	d40d      	bmi.n	800197c <HAL_RCC_OscConfig+0x108>
 8001960:	6823      	ldr	r3, [r4, #0]
 8001962:	079b      	lsls	r3, r3, #30
 8001964:	d502      	bpl.n	800196c <HAL_RCC_OscConfig+0xf8>
 8001966:	692b      	ldr	r3, [r5, #16]
 8001968:	2b01      	cmp	r3, #1
 800196a:	d1af      	bne.n	80018cc <HAL_RCC_OscConfig+0x58>
 800196c:	6823      	ldr	r3, [r4, #0]
 800196e:	696a      	ldr	r2, [r5, #20]
 8001970:	f023 03f8 	bic.w	r3, r3, #248	; 0xf8
 8001974:	ea43 03c2 	orr.w	r3, r3, r2, lsl #3
 8001978:	6023      	str	r3, [r4, #0]
 800197a:	e785      	b.n	8001888 <HAL_RCC_OscConfig+0x14>
 800197c:	692a      	ldr	r2, [r5, #16]
 800197e:	4b5b      	ldr	r3, [pc, #364]	; (8001aec <HAL_RCC_OscConfig+0x278>)
 8001980:	b16a      	cbz	r2, 800199e <HAL_RCC_OscConfig+0x12a>
 8001982:	2201      	movs	r2, #1
 8001984:	601a      	str	r2, [r3, #0]
 8001986:	f7ff fbb1 	bl	80010ec <HAL_GetTick>
 800198a:	4606      	mov	r6, r0
 800198c:	6823      	ldr	r3, [r4, #0]
 800198e:	079f      	lsls	r7, r3, #30
 8001990:	d4ec      	bmi.n	800196c <HAL_RCC_OscConfig+0xf8>
 8001992:	f7ff fbab 	bl	80010ec <HAL_GetTick>
 8001996:	1b80      	subs	r0, r0, r6
 8001998:	2802      	cmp	r0, #2
 800199a:	d9f7      	bls.n	800198c <HAL_RCC_OscConfig+0x118>
 800199c:	e7ab      	b.n	80018f6 <HAL_RCC_OscConfig+0x82>
 800199e:	601a      	str	r2, [r3, #0]
 80019a0:	f7ff fba4 	bl	80010ec <HAL_GetTick>
 80019a4:	4606      	mov	r6, r0
 80019a6:	6823      	ldr	r3, [r4, #0]
 80019a8:	0798      	lsls	r0, r3, #30
 80019aa:	f57f af6d 	bpl.w	8001888 <HAL_RCC_OscConfig+0x14>
 80019ae:	f7ff fb9d 	bl	80010ec <HAL_GetTick>
 80019b2:	1b80      	subs	r0, r0, r6
 80019b4:	2802      	cmp	r0, #2
 80019b6:	d9f6      	bls.n	80019a6 <HAL_RCC_OscConfig+0x132>
 80019b8:	e79d      	b.n	80018f6 <HAL_RCC_OscConfig+0x82>
 80019ba:	69aa      	ldr	r2, [r5, #24]
 80019bc:	4e4a      	ldr	r6, [pc, #296]	; (8001ae8 <HAL_RCC_OscConfig+0x274>)
 80019be:	4b4b      	ldr	r3, [pc, #300]	; (8001aec <HAL_RCC_OscConfig+0x278>)
 80019c0:	b1e2      	cbz	r2, 80019fc <HAL_RCC_OscConfig+0x188>
 80019c2:	2201      	movs	r2, #1
 80019c4:	f8c3 2480 	str.w	r2, [r3, #1152]	; 0x480
 80019c8:	f7ff fb90 	bl	80010ec <HAL_GetTick>
 80019cc:	4604      	mov	r4, r0
 80019ce:	6a73      	ldr	r3, [r6, #36]	; 0x24
 80019d0:	079b      	lsls	r3, r3, #30
 80019d2:	d50d      	bpl.n	80019f0 <HAL_RCC_OscConfig+0x17c>
 80019d4:	f44f 52fa 	mov.w	r2, #8000	; 0x1f40
 80019d8:	4b45      	ldr	r3, [pc, #276]	; (8001af0 <HAL_RCC_OscConfig+0x27c>)
 80019da:	681b      	ldr	r3, [r3, #0]
 80019dc:	fbb3 f3f2 	udiv	r3, r3, r2
 80019e0:	9301      	str	r3, [sp, #4]
 80019e2:	bf00      	nop
 80019e4:	9b01      	ldr	r3, [sp, #4]
 80019e6:	1e5a      	subs	r2, r3, #1
 80019e8:	9201      	str	r2, [sp, #4]
 80019ea:	2b00      	cmp	r3, #0
 80019ec:	d1f9      	bne.n	80019e2 <HAL_RCC_OscConfig+0x16e>
 80019ee:	e74f      	b.n	8001890 <HAL_RCC_OscConfig+0x1c>
 80019f0:	f7ff fb7c 	bl	80010ec <HAL_GetTick>
 80019f4:	1b00      	subs	r0, r0, r4
 80019f6:	2802      	cmp	r0, #2
 80019f8:	d9e9      	bls.n	80019ce <HAL_RCC_OscConfig+0x15a>
 80019fa:	e77c      	b.n	80018f6 <HAL_RCC_OscConfig+0x82>
 80019fc:	f8c3 2480 	str.w	r2, [r3, #1152]	; 0x480
 8001a00:	f7ff fb74 	bl	80010ec <HAL_GetTick>
 8001a04:	4604      	mov	r4, r0
 8001a06:	6a73      	ldr	r3, [r6, #36]	; 0x24
 8001a08:	079f      	lsls	r7, r3, #30
 8001a0a:	f57f af41 	bpl.w	8001890 <HAL_RCC_OscConfig+0x1c>
 8001a0e:	f7ff fb6d 	bl	80010ec <HAL_GetTick>
 8001a12:	1b00      	subs	r0, r0, r4
 8001a14:	2802      	cmp	r0, #2
 8001a16:	d9f6      	bls.n	8001a06 <HAL_RCC_OscConfig+0x192>
 8001a18:	e76d      	b.n	80018f6 <HAL_RCC_OscConfig+0x82>
 8001a1a:	4c33      	ldr	r4, [pc, #204]	; (8001ae8 <HAL_RCC_OscConfig+0x274>)
 8001a1c:	69e3      	ldr	r3, [r4, #28]
 8001a1e:	00d8      	lsls	r0, r3, #3
 8001a20:	d424      	bmi.n	8001a6c <HAL_RCC_OscConfig+0x1f8>
 8001a22:	2701      	movs	r7, #1
 8001a24:	69e3      	ldr	r3, [r4, #28]
 8001a26:	f043 5380 	orr.w	r3, r3, #268435456	; 0x10000000
 8001a2a:	61e3      	str	r3, [r4, #28]
 8001a2c:	69e3      	ldr	r3, [r4, #28]
 8001a2e:	f003 5380 	and.w	r3, r3, #268435456	; 0x10000000
 8001a32:	9300      	str	r3, [sp, #0]
 8001a34:	9b00      	ldr	r3, [sp, #0]
 8001a36:	4e2f      	ldr	r6, [pc, #188]	; (8001af4 <HAL_RCC_OscConfig+0x280>)
 8001a38:	6833      	ldr	r3, [r6, #0]
 8001a3a:	05d9      	lsls	r1, r3, #23
 8001a3c:	d518      	bpl.n	8001a70 <HAL_RCC_OscConfig+0x1fc>
 8001a3e:	68eb      	ldr	r3, [r5, #12]
 8001a40:	2b01      	cmp	r3, #1
 8001a42:	d126      	bne.n	8001a92 <HAL_RCC_OscConfig+0x21e>
 8001a44:	6a23      	ldr	r3, [r4, #32]
 8001a46:	f043 0301 	orr.w	r3, r3, #1
 8001a4a:	6223      	str	r3, [r4, #32]
 8001a4c:	f7ff fb4e 	bl	80010ec <HAL_GetTick>
 8001a50:	f241 3888 	movw	r8, #5000	; 0x1388
 8001a54:	4606      	mov	r6, r0
 8001a56:	6a23      	ldr	r3, [r4, #32]
 8001a58:	079b      	lsls	r3, r3, #30
 8001a5a:	d53f      	bpl.n	8001adc <HAL_RCC_OscConfig+0x268>
 8001a5c:	2f00      	cmp	r7, #0
 8001a5e:	f43f af1b 	beq.w	8001898 <HAL_RCC_OscConfig+0x24>
 8001a62:	69e3      	ldr	r3, [r4, #28]
 8001a64:	f023 5380 	bic.w	r3, r3, #268435456	; 0x10000000
 8001a68:	61e3      	str	r3, [r4, #28]
 8001a6a:	e715      	b.n	8001898 <HAL_RCC_OscConfig+0x24>
 8001a6c:	2700      	movs	r7, #0
 8001a6e:	e7e2      	b.n	8001a36 <HAL_RCC_OscConfig+0x1c2>
 8001a70:	6833      	ldr	r3, [r6, #0]
 8001a72:	f443 7380 	orr.w	r3, r3, #256	; 0x100
 8001a76:	6033      	str	r3, [r6, #0]
 8001a78:	f7ff fb38 	bl	80010ec <HAL_GetTick>
 8001a7c:	4680      	mov	r8, r0
 8001a7e:	6833      	ldr	r3, [r6, #0]
 8001a80:	05da      	lsls	r2, r3, #23
 8001a82:	d4dc      	bmi.n	8001a3e <HAL_RCC_OscConfig+0x1ca>
 8001a84:	f7ff fb32 	bl	80010ec <HAL_GetTick>
 8001a88:	eba0 0008 	sub.w	r0, r0, r8
 8001a8c:	2864      	cmp	r0, #100	; 0x64
 8001a8e:	d9f6      	bls.n	8001a7e <HAL_RCC_OscConfig+0x20a>
 8001a90:	e731      	b.n	80018f6 <HAL_RCC_OscConfig+0x82>
 8001a92:	b9ab      	cbnz	r3, 8001ac0 <HAL_RCC_OscConfig+0x24c>
 8001a94:	6a23      	ldr	r3, [r4, #32]
 8001a96:	f241 3888 	movw	r8, #5000	; 0x1388
 8001a9a:	f023 0301 	bic.w	r3, r3, #1
 8001a9e:	6223      	str	r3, [r4, #32]
 8001aa0:	6a23      	ldr	r3, [r4, #32]
 8001aa2:	f023 0304 	bic.w	r3, r3, #4
 8001aa6:	6223      	str	r3, [r4, #32]
 8001aa8:	f7ff fb20 	bl	80010ec <HAL_GetTick>
 8001aac:	4606      	mov	r6, r0
 8001aae:	6a23      	ldr	r3, [r4, #32]
 8001ab0:	0798      	lsls	r0, r3, #30
 8001ab2:	d5d3      	bpl.n	8001a5c <HAL_RCC_OscConfig+0x1e8>
 8001ab4:	f7ff fb1a 	bl	80010ec <HAL_GetTick>
 8001ab8:	1b80      	subs	r0, r0, r6
 8001aba:	4540      	cmp	r0, r8
 8001abc:	d9f7      	bls.n	8001aae <HAL_RCC_OscConfig+0x23a>
 8001abe:	e71a      	b.n	80018f6 <HAL_RCC_OscConfig+0x82>
 8001ac0:	2b05      	cmp	r3, #5
 8001ac2:	6a23      	ldr	r3, [r4, #32]
 8001ac4:	d103      	bne.n	8001ace <HAL_RCC_OscConfig+0x25a>
 8001ac6:	f043 0304 	orr.w	r3, r3, #4
 8001aca:	6223      	str	r3, [r4, #32]
 8001acc:	e7ba      	b.n	8001a44 <HAL_RCC_OscConfig+0x1d0>
 8001ace:	f023 0301 	bic.w	r3, r3, #1
 8001ad2:	6223      	str	r3, [r4, #32]
 8001ad4:	6a23      	ldr	r3, [r4, #32]
 8001ad6:	f023 0304 	bic.w	r3, r3, #4
 8001ada:	e7b6      	b.n	8001a4a <HAL_RCC_OscConfig+0x1d6>
 8001adc:	f7ff fb06 	bl	80010ec <HAL_GetTick>
 8001ae0:	1b80      	subs	r0, r0, r6
 8001ae2:	4540      	cmp	r0, r8
 8001ae4:	d9b7      	bls.n	8001a56 <HAL_RCC_OscConfig+0x1e2>
 8001ae6:	e706      	b.n	80018f6 <HAL_RCC_OscConfig+0x82>
 8001ae8:	40021000 	.word	0x40021000
 8001aec:	42420000 	.word	0x42420000
 8001af0:	20000028 	.word	0x20000028
 8001af4:	40007000 	.word	0x40007000
 8001af8:	4c2a      	ldr	r4, [pc, #168]	; (8001ba4 <HAL_RCC_OscConfig+0x330>)
 8001afa:	6863      	ldr	r3, [r4, #4]
 8001afc:	f003 030c 	and.w	r3, r3, #12
 8001b00:	2b08      	cmp	r3, #8
 8001b02:	d03e      	beq.n	8001b82 <HAL_RCC_OscConfig+0x30e>
 8001b04:	2200      	movs	r2, #0
 8001b06:	4b28      	ldr	r3, [pc, #160]	; (8001ba8 <HAL_RCC_OscConfig+0x334>)
 8001b08:	2802      	cmp	r0, #2
 8001b0a:	661a      	str	r2, [r3, #96]	; 0x60
 8001b0c:	d12c      	bne.n	8001b68 <HAL_RCC_OscConfig+0x2f4>
 8001b0e:	f7ff faed 	bl	80010ec <HAL_GetTick>
 8001b12:	4606      	mov	r6, r0
 8001b14:	6823      	ldr	r3, [r4, #0]
 8001b16:	0199      	lsls	r1, r3, #6
 8001b18:	d420      	bmi.n	8001b5c <HAL_RCC_OscConfig+0x2e8>
 8001b1a:	6a2b      	ldr	r3, [r5, #32]
 8001b1c:	f5b3 3f80 	cmp.w	r3, #65536	; 0x10000
 8001b20:	d105      	bne.n	8001b2e <HAL_RCC_OscConfig+0x2ba>
 8001b22:	6862      	ldr	r2, [r4, #4]
 8001b24:	68a9      	ldr	r1, [r5, #8]
 8001b26:	f422 3200 	bic.w	r2, r2, #131072	; 0x20000
 8001b2a:	430a      	orrs	r2, r1
 8001b2c:	6062      	str	r2, [r4, #4]
 8001b2e:	6a69      	ldr	r1, [r5, #36]	; 0x24
 8001b30:	6862      	ldr	r2, [r4, #4]
 8001b32:	430b      	orrs	r3, r1
 8001b34:	f422 1274 	bic.w	r2, r2, #3997696	; 0x3d0000
 8001b38:	4313      	orrs	r3, r2
 8001b3a:	2201      	movs	r2, #1
 8001b3c:	6063      	str	r3, [r4, #4]
 8001b3e:	4b1a      	ldr	r3, [pc, #104]	; (8001ba8 <HAL_RCC_OscConfig+0x334>)
 8001b40:	661a      	str	r2, [r3, #96]	; 0x60
 8001b42:	f7ff fad3 	bl	80010ec <HAL_GetTick>
 8001b46:	4605      	mov	r5, r0
 8001b48:	6823      	ldr	r3, [r4, #0]
 8001b4a:	019a      	lsls	r2, r3, #6
 8001b4c:	f53f aea8 	bmi.w	80018a0 <HAL_RCC_OscConfig+0x2c>
 8001b50:	f7ff facc 	bl	80010ec <HAL_GetTick>
 8001b54:	1b40      	subs	r0, r0, r5
 8001b56:	2802      	cmp	r0, #2
 8001b58:	d9f6      	bls.n	8001b48 <HAL_RCC_OscConfig+0x2d4>
 8001b5a:	e6cc      	b.n	80018f6 <HAL_RCC_OscConfig+0x82>
 8001b5c:	f7ff fac6 	bl	80010ec <HAL_GetTick>
 8001b60:	1b80      	subs	r0, r0, r6
 8001b62:	2802      	cmp	r0, #2
 8001b64:	d9d6      	bls.n	8001b14 <HAL_RCC_OscConfig+0x2a0>
 8001b66:	e6c6      	b.n	80018f6 <HAL_RCC_OscConfig+0x82>
 8001b68:	f7ff fac0 	bl	80010ec <HAL_GetTick>
 8001b6c:	4605      	mov	r5, r0
 8001b6e:	6823      	ldr	r3, [r4, #0]
 8001b70:	019b      	lsls	r3, r3, #6
 8001b72:	f57f ae95 	bpl.w	80018a0 <HAL_RCC_OscConfig+0x2c>
 8001b76:	f7ff fab9 	bl	80010ec <HAL_GetTick>
 8001b7a:	1b40      	subs	r0, r0, r5
 8001b7c:	2802      	cmp	r0, #2
 8001b7e:	d9f6      	bls.n	8001b6e <HAL_RCC_OscConfig+0x2fa>
 8001b80:	e6b9      	b.n	80018f6 <HAL_RCC_OscConfig+0x82>
 8001b82:	2801      	cmp	r0, #1
 8001b84:	f43f aeb8 	beq.w	80018f8 <HAL_RCC_OscConfig+0x84>
 8001b88:	6863      	ldr	r3, [r4, #4]
 8001b8a:	6a2a      	ldr	r2, [r5, #32]
 8001b8c:	f403 3180 	and.w	r1, r3, #65536	; 0x10000
 8001b90:	4291      	cmp	r1, r2
 8001b92:	f47f ae9b 	bne.w	80018cc <HAL_RCC_OscConfig+0x58>
 8001b96:	6a6a      	ldr	r2, [r5, #36]	; 0x24
 8001b98:	f403 1370 	and.w	r3, r3, #3932160	; 0x3c0000
 8001b9c:	4293      	cmp	r3, r2
 8001b9e:	f43f ae7f 	beq.w	80018a0 <HAL_RCC_OscConfig+0x2c>
 8001ba2:	e693      	b.n	80018cc <HAL_RCC_OscConfig+0x58>
 8001ba4:	40021000 	.word	0x40021000
 8001ba8:	42420000 	.word	0x42420000

08001bac <HAL_RCC_GetSysClockFreq>:
 8001bac:	b530      	push	{r4, r5, lr}
 8001bae:	4b18      	ldr	r3, [pc, #96]	; (8001c10 <HAL_RCC_GetSysClockFreq+0x64>)
 8001bb0:	b087      	sub	sp, #28
 8001bb2:	ac02      	add	r4, sp, #8
 8001bb4:	f103 0510 	add.w	r5, r3, #16
 8001bb8:	4622      	mov	r2, r4
 8001bba:	6818      	ldr	r0, [r3, #0]
 8001bbc:	6859      	ldr	r1, [r3, #4]
 8001bbe:	3308      	adds	r3, #8
 8001bc0:	c203      	stmia	r2!, {r0, r1}
 8001bc2:	42ab      	cmp	r3, r5
 8001bc4:	4614      	mov	r4, r2
 8001bc6:	d1f7      	bne.n	8001bb8 <HAL_RCC_GetSysClockFreq+0xc>
 8001bc8:	f240 2301 	movw	r3, #513	; 0x201
 8001bcc:	4911      	ldr	r1, [pc, #68]	; (8001c14 <HAL_RCC_GetSysClockFreq+0x68>)
 8001bce:	f8ad 3004 	strh.w	r3, [sp, #4]
 8001bd2:	684b      	ldr	r3, [r1, #4]
 8001bd4:	f003 020c 	and.w	r2, r3, #12
 8001bd8:	2a08      	cmp	r2, #8
 8001bda:	d117      	bne.n	8001c0c <HAL_RCC_GetSysClockFreq+0x60>
 8001bdc:	f3c3 4283 	ubfx	r2, r3, #18, #4
 8001be0:	3218      	adds	r2, #24
 8001be2:	446a      	add	r2, sp
 8001be4:	03db      	lsls	r3, r3, #15
 8001be6:	f812 0c10 	ldrb.w	r0, [r2, #-16]
 8001bea:	d50c      	bpl.n	8001c06 <HAL_RCC_GetSysClockFreq+0x5a>
 8001bec:	684b      	ldr	r3, [r1, #4]
 8001bee:	4a0a      	ldr	r2, [pc, #40]	; (8001c18 <HAL_RCC_GetSysClockFreq+0x6c>)
 8001bf0:	f3c3 4340 	ubfx	r3, r3, #17, #1
 8001bf4:	4350      	muls	r0, r2
 8001bf6:	3318      	adds	r3, #24
 8001bf8:	446b      	add	r3, sp
 8001bfa:	f813 3c14 	ldrb.w	r3, [r3, #-20]
 8001bfe:	fbb0 f0f3 	udiv	r0, r0, r3
 8001c02:	b007      	add	sp, #28
 8001c04:	bd30      	pop	{r4, r5, pc}
 8001c06:	4b05      	ldr	r3, [pc, #20]	; (8001c1c <HAL_RCC_GetSysClockFreq+0x70>)
 8001c08:	4358      	muls	r0, r3
 8001c0a:	e7fa      	b.n	8001c02 <HAL_RCC_GetSysClockFreq+0x56>
 8001c0c:	4802      	ldr	r0, [pc, #8]	; (8001c18 <HAL_RCC_GetSysClockFreq+0x6c>)
 8001c0e:	e7f8      	b.n	8001c02 <HAL_RCC_GetSysClockFreq+0x56>
 8001c10:	08003566 	.word	0x08003566
 8001c14:	40021000 	.word	0x40021000
 8001c18:	007a1200 	.word	0x007a1200
 8001c1c:	003d0900 	.word	0x003d0900

08001c20 <HAL_RCC_ClockConfig>:
 8001c20:	e92d 41f0 	stmdb	sp!, {r4, r5, r6, r7, r8, lr}
 8001c24:	460d      	mov	r5, r1
 8001c26:	4604      	mov	r4, r0
 8001c28:	b910      	cbnz	r0, 8001c30 <HAL_RCC_ClockConfig+0x10>
 8001c2a:	2001      	movs	r0, #1
 8001c2c:	e8bd 81f0 	ldmia.w	sp!, {r4, r5, r6, r7, r8, pc}
 8001c30:	4a44      	ldr	r2, [pc, #272]	; (8001d44 <HAL_RCC_ClockConfig+0x124>)
 8001c32:	6813      	ldr	r3, [r2, #0]
 8001c34:	f003 0307 	and.w	r3, r3, #7
 8001c38:	428b      	cmp	r3, r1
 8001c3a:	d328      	bcc.n	8001c8e <HAL_RCC_ClockConfig+0x6e>
 8001c3c:	6821      	ldr	r1, [r4, #0]
 8001c3e:	078e      	lsls	r6, r1, #30
 8001c40:	d430      	bmi.n	8001ca4 <HAL_RCC_ClockConfig+0x84>
 8001c42:	07ca      	lsls	r2, r1, #31
 8001c44:	d443      	bmi.n	8001cce <HAL_RCC_ClockConfig+0xae>
 8001c46:	4a3f      	ldr	r2, [pc, #252]	; (8001d44 <HAL_RCC_ClockConfig+0x124>)
 8001c48:	6813      	ldr	r3, [r2, #0]
 8001c4a:	f003 0307 	and.w	r3, r3, #7
 8001c4e:	42ab      	cmp	r3, r5
 8001c50:	d865      	bhi.n	8001d1e <HAL_RCC_ClockConfig+0xfe>
 8001c52:	6822      	ldr	r2, [r4, #0]
 8001c54:	4d3c      	ldr	r5, [pc, #240]	; (8001d48 <HAL_RCC_ClockConfig+0x128>)
 8001c56:	f012 0f04 	tst.w	r2, #4
 8001c5a:	d16c      	bne.n	8001d36 <HAL_RCC_ClockConfig+0x116>
 8001c5c:	0713      	lsls	r3, r2, #28
 8001c5e:	d506      	bpl.n	8001c6e <HAL_RCC_ClockConfig+0x4e>
 8001c60:	686b      	ldr	r3, [r5, #4]
 8001c62:	6922      	ldr	r2, [r4, #16]
 8001c64:	f423 5360 	bic.w	r3, r3, #14336	; 0x3800
 8001c68:	ea43 03c2 	orr.w	r3, r3, r2, lsl #3
 8001c6c:	606b      	str	r3, [r5, #4]
 8001c6e:	f7ff ff9d 	bl	8001bac <HAL_RCC_GetSysClockFreq>
 8001c72:	686b      	ldr	r3, [r5, #4]
 8001c74:	4a35      	ldr	r2, [pc, #212]	; (8001d4c <HAL_RCC_ClockConfig+0x12c>)
 8001c76:	f3c3 1303 	ubfx	r3, r3, #4, #4
 8001c7a:	5cd3      	ldrb	r3, [r2, r3]
 8001c7c:	40d8      	lsrs	r0, r3
 8001c7e:	4b34      	ldr	r3, [pc, #208]	; (8001d50 <HAL_RCC_ClockConfig+0x130>)
 8001c80:	6018      	str	r0, [r3, #0]
 8001c82:	4b34      	ldr	r3, [pc, #208]	; (8001d54 <HAL_RCC_ClockConfig+0x134>)
 8001c84:	6818      	ldr	r0, [r3, #0]
 8001c86:	f7ff f9ef 	bl	8001068 <HAL_InitTick>
 8001c8a:	2000      	movs	r0, #0
 8001c8c:	e7ce      	b.n	8001c2c <HAL_RCC_ClockConfig+0xc>
 8001c8e:	6813      	ldr	r3, [r2, #0]
 8001c90:	f023 0307 	bic.w	r3, r3, #7
 8001c94:	430b      	orrs	r3, r1
 8001c96:	6013      	str	r3, [r2, #0]
 8001c98:	6813      	ldr	r3, [r2, #0]
 8001c9a:	f003 0307 	and.w	r3, r3, #7
 8001c9e:	428b      	cmp	r3, r1
 8001ca0:	d1c3      	bne.n	8001c2a <HAL_RCC_ClockConfig+0xa>
 8001ca2:	e7cb      	b.n	8001c3c <HAL_RCC_ClockConfig+0x1c>
 8001ca4:	4b28      	ldr	r3, [pc, #160]	; (8001d48 <HAL_RCC_ClockConfig+0x128>)
 8001ca6:	f011 0f04 	tst.w	r1, #4
 8001caa:	bf1e      	ittt	ne
 8001cac:	685a      	ldrne	r2, [r3, #4]
 8001cae:	f442 62e0 	orrne.w	r2, r2, #1792	; 0x700
 8001cb2:	605a      	strne	r2, [r3, #4]
 8001cb4:	0708      	lsls	r0, r1, #28
 8001cb6:	bf42      	ittt	mi
 8001cb8:	685a      	ldrmi	r2, [r3, #4]
 8001cba:	f442 5260 	orrmi.w	r2, r2, #14336	; 0x3800
 8001cbe:	605a      	strmi	r2, [r3, #4]
 8001cc0:	685a      	ldr	r2, [r3, #4]
 8001cc2:	68a0      	ldr	r0, [r4, #8]
 8001cc4:	f022 02f0 	bic.w	r2, r2, #240	; 0xf0
 8001cc8:	4302      	orrs	r2, r0
 8001cca:	605a      	str	r2, [r3, #4]
 8001ccc:	e7b9      	b.n	8001c42 <HAL_RCC_ClockConfig+0x22>
 8001cce:	6862      	ldr	r2, [r4, #4]
 8001cd0:	4e1d      	ldr	r6, [pc, #116]	; (8001d48 <HAL_RCC_ClockConfig+0x128>)
 8001cd2:	2a01      	cmp	r2, #1
 8001cd4:	6833      	ldr	r3, [r6, #0]
 8001cd6:	d11a      	bne.n	8001d0e <HAL_RCC_ClockConfig+0xee>
 8001cd8:	f413 3f00 	tst.w	r3, #131072	; 0x20000
 8001cdc:	d0a5      	beq.n	8001c2a <HAL_RCC_ClockConfig+0xa>
 8001cde:	6873      	ldr	r3, [r6, #4]
 8001ce0:	f241 3888 	movw	r8, #5000	; 0x1388
 8001ce4:	f023 0303 	bic.w	r3, r3, #3
 8001ce8:	4313      	orrs	r3, r2
 8001cea:	6073      	str	r3, [r6, #4]
 8001cec:	f7ff f9fe 	bl	80010ec <HAL_GetTick>
 8001cf0:	4607      	mov	r7, r0
 8001cf2:	6873      	ldr	r3, [r6, #4]
 8001cf4:	6862      	ldr	r2, [r4, #4]
 8001cf6:	f003 030c 	and.w	r3, r3, #12
 8001cfa:	ebb3 0f82 	cmp.w	r3, r2, lsl #2
 8001cfe:	d0a2      	beq.n	8001c46 <HAL_RCC_ClockConfig+0x26>
 8001d00:	f7ff f9f4 	bl	80010ec <HAL_GetTick>
 8001d04:	1bc0      	subs	r0, r0, r7
 8001d06:	4540      	cmp	r0, r8
 8001d08:	d9f3      	bls.n	8001cf2 <HAL_RCC_ClockConfig+0xd2>
 8001d0a:	2003      	movs	r0, #3
 8001d0c:	e78e      	b.n	8001c2c <HAL_RCC_ClockConfig+0xc>
 8001d0e:	2a02      	cmp	r2, #2
 8001d10:	d102      	bne.n	8001d18 <HAL_RCC_ClockConfig+0xf8>
 8001d12:	f013 7f00 	tst.w	r3, #33554432	; 0x2000000
 8001d16:	e7e1      	b.n	8001cdc <HAL_RCC_ClockConfig+0xbc>
 8001d18:	f013 0f02 	tst.w	r3, #2
 8001d1c:	e7de      	b.n	8001cdc <HAL_RCC_ClockConfig+0xbc>
 8001d1e:	6813      	ldr	r3, [r2, #0]
 8001d20:	f023 0307 	bic.w	r3, r3, #7
 8001d24:	432b      	orrs	r3, r5
 8001d26:	6013      	str	r3, [r2, #0]
 8001d28:	6813      	ldr	r3, [r2, #0]
 8001d2a:	f003 0307 	and.w	r3, r3, #7
 8001d2e:	42ab      	cmp	r3, r5
 8001d30:	f47f af7b 	bne.w	8001c2a <HAL_RCC_ClockConfig+0xa>
 8001d34:	e78d      	b.n	8001c52 <HAL_RCC_ClockConfig+0x32>
 8001d36:	686b      	ldr	r3, [r5, #4]
 8001d38:	68e1      	ldr	r1, [r4, #12]
 8001d3a:	f423 63e0 	bic.w	r3, r3, #1792	; 0x700
 8001d3e:	430b      	orrs	r3, r1
 8001d40:	606b      	str	r3, [r5, #4]
 8001d42:	e78b      	b.n	8001c5c <HAL_RCC_ClockConfig+0x3c>
 8001d44:	40022000 	.word	0x40022000
 8001d48:	40021000 	.word	0x40021000
 8001d4c:	0800354e 	.word	0x0800354e
 8001d50:	20000028 	.word	0x20000028
 8001d54:	20000030 	.word	0x20000030

08001d58 <HAL_RCC_GetPCLK1Freq>:
 8001d58:	4b04      	ldr	r3, [pc, #16]	; (8001d6c <HAL_RCC_GetPCLK1Freq+0x14>)
 8001d5a:	4a05      	ldr	r2, [pc, #20]	; (8001d70 <HAL_RCC_GetPCLK1Freq+0x18>)
 8001d5c:	685b      	ldr	r3, [r3, #4]
 8001d5e:	f3c3 2302 	ubfx	r3, r3, #8, #3
 8001d62:	5cd3      	ldrb	r3, [r2, r3]
 8001d64:	4a03      	ldr	r2, [pc, #12]	; (8001d74 <HAL_RCC_GetPCLK1Freq+0x1c>)
 8001d66:	6810      	ldr	r0, [r2, #0]
 8001d68:	40d8      	lsrs	r0, r3
 8001d6a:	4770      	bx	lr
 8001d6c:	40021000 	.word	0x40021000
 8001d70:	0800355e 	.word	0x0800355e
 8001d74:	20000028 	.word	0x20000028

08001d78 <HAL_RCC_GetPCLK2Freq>:
 8001d78:	4b04      	ldr	r3, [pc, #16]	; (8001d8c <HAL_RCC_GetPCLK2Freq+0x14>)
 8001d7a:	4a05      	ldr	r2, [pc, #20]	; (8001d90 <HAL_RCC_GetPCLK2Freq+0x18>)
 8001d7c:	685b      	ldr	r3, [r3, #4]
 8001d7e:	f3c3 23c2 	ubfx	r3, r3, #11, #3
 8001d82:	5cd3      	ldrb	r3, [r2, r3]
 8001d84:	4a03      	ldr	r2, [pc, #12]	; (8001d94 <HAL_RCC_GetPCLK2Freq+0x1c>)
 8001d86:	6810      	ldr	r0, [r2, #0]
 8001d88:	40d8      	lsrs	r0, r3
 8001d8a:	4770      	bx	lr
 8001d8c:	40021000 	.word	0x40021000
 8001d90:	0800355e 	.word	0x0800355e
 8001d94:	20000028 	.word	0x20000028

08001d98 <HAL_RCCEx_PeriphCLKConfig>:
 8001d98:	6803      	ldr	r3, [r0, #0]
 8001d9a:	e92d 41f3 	stmdb	sp!, {r0, r1, r4, r5, r6, r7, r8, lr}
 8001d9e:	07d9      	lsls	r1, r3, #31
 8001da0:	4605      	mov	r5, r0
 8001da2:	d521      	bpl.n	8001de8 <HAL_RCCEx_PeriphCLKConfig+0x50>
 8001da4:	4c36      	ldr	r4, [pc, #216]	; (8001e80 <HAL_RCCEx_PeriphCLKConfig+0xe8>)
 8001da6:	69e3      	ldr	r3, [r4, #28]
 8001da8:	00da      	lsls	r2, r3, #3
 8001daa:	d433      	bmi.n	8001e14 <HAL_RCCEx_PeriphCLKConfig+0x7c>
 8001dac:	2601      	movs	r6, #1
 8001dae:	69e3      	ldr	r3, [r4, #28]
 8001db0:	f043 5380 	orr.w	r3, r3, #268435456	; 0x10000000
 8001db4:	61e3      	str	r3, [r4, #28]
 8001db6:	69e3      	ldr	r3, [r4, #28]
 8001db8:	f003 5380 	and.w	r3, r3, #268435456	; 0x10000000
 8001dbc:	9301      	str	r3, [sp, #4]
 8001dbe:	9b01      	ldr	r3, [sp, #4]
 8001dc0:	4f30      	ldr	r7, [pc, #192]	; (8001e84 <HAL_RCCEx_PeriphCLKConfig+0xec>)
 8001dc2:	683b      	ldr	r3, [r7, #0]
 8001dc4:	05db      	lsls	r3, r3, #23
 8001dc6:	d527      	bpl.n	8001e18 <HAL_RCCEx_PeriphCLKConfig+0x80>
 8001dc8:	6a23      	ldr	r3, [r4, #32]
 8001dca:	686a      	ldr	r2, [r5, #4]
 8001dcc:	f413 7340 	ands.w	r3, r3, #768	; 0x300
 8001dd0:	d136      	bne.n	8001e40 <HAL_RCCEx_PeriphCLKConfig+0xa8>
 8001dd2:	6a23      	ldr	r3, [r4, #32]
 8001dd4:	686a      	ldr	r2, [r5, #4]
 8001dd6:	f423 7340 	bic.w	r3, r3, #768	; 0x300
 8001dda:	4313      	orrs	r3, r2
 8001ddc:	6223      	str	r3, [r4, #32]
 8001dde:	b11e      	cbz	r6, 8001de8 <HAL_RCCEx_PeriphCLKConfig+0x50>
 8001de0:	69e3      	ldr	r3, [r4, #28]
 8001de2:	f023 5380 	bic.w	r3, r3, #268435456	; 0x10000000
 8001de6:	61e3      	str	r3, [r4, #28]
 8001de8:	6828      	ldr	r0, [r5, #0]
 8001dea:	0783      	lsls	r3, r0, #30
 8001dec:	d506      	bpl.n	8001dfc <HAL_RCCEx_PeriphCLKConfig+0x64>
 8001dee:	4924      	ldr	r1, [pc, #144]	; (8001e80 <HAL_RCCEx_PeriphCLKConfig+0xe8>)
 8001df0:	68ab      	ldr	r3, [r5, #8]
 8001df2:	684a      	ldr	r2, [r1, #4]
 8001df4:	f422 4240 	bic.w	r2, r2, #49152	; 0xc000
 8001df8:	431a      	orrs	r2, r3
 8001dfa:	604a      	str	r2, [r1, #4]
 8001dfc:	f010 0010 	ands.w	r0, r0, #16
 8001e00:	d01b      	beq.n	8001e3a <HAL_RCCEx_PeriphCLKConfig+0xa2>
 8001e02:	4a1f      	ldr	r2, [pc, #124]	; (8001e80 <HAL_RCCEx_PeriphCLKConfig+0xe8>)
 8001e04:	68e9      	ldr	r1, [r5, #12]
 8001e06:	6853      	ldr	r3, [r2, #4]
 8001e08:	2000      	movs	r0, #0
 8001e0a:	f423 0380 	bic.w	r3, r3, #4194304	; 0x400000
 8001e0e:	430b      	orrs	r3, r1
 8001e10:	6053      	str	r3, [r2, #4]
 8001e12:	e012      	b.n	8001e3a <HAL_RCCEx_PeriphCLKConfig+0xa2>
 8001e14:	2600      	movs	r6, #0
 8001e16:	e7d3      	b.n	8001dc0 <HAL_RCCEx_PeriphCLKConfig+0x28>
 8001e18:	683b      	ldr	r3, [r7, #0]
 8001e1a:	f443 7380 	orr.w	r3, r3, #256	; 0x100
 8001e1e:	603b      	str	r3, [r7, #0]
 8001e20:	f7ff f964 	bl	80010ec <HAL_GetTick>
 8001e24:	4680      	mov	r8, r0
 8001e26:	683b      	ldr	r3, [r7, #0]
 8001e28:	05d8      	lsls	r0, r3, #23
 8001e2a:	d4cd      	bmi.n	8001dc8 <HAL_RCCEx_PeriphCLKConfig+0x30>
 8001e2c:	f7ff f95e 	bl	80010ec <HAL_GetTick>
 8001e30:	eba0 0008 	sub.w	r0, r0, r8
 8001e34:	2864      	cmp	r0, #100	; 0x64
 8001e36:	d9f6      	bls.n	8001e26 <HAL_RCCEx_PeriphCLKConfig+0x8e>
 8001e38:	2003      	movs	r0, #3
 8001e3a:	b002      	add	sp, #8
 8001e3c:	e8bd 81f0 	ldmia.w	sp!, {r4, r5, r6, r7, r8, pc}
 8001e40:	f402 7240 	and.w	r2, r2, #768	; 0x300
 8001e44:	429a      	cmp	r2, r3
 8001e46:	d0c4      	beq.n	8001dd2 <HAL_RCCEx_PeriphCLKConfig+0x3a>
 8001e48:	2001      	movs	r0, #1
 8001e4a:	4a0f      	ldr	r2, [pc, #60]	; (8001e88 <HAL_RCCEx_PeriphCLKConfig+0xf0>)
 8001e4c:	6a23      	ldr	r3, [r4, #32]
 8001e4e:	f8c2 0440 	str.w	r0, [r2, #1088]	; 0x440
 8001e52:	2000      	movs	r0, #0
 8001e54:	f423 7140 	bic.w	r1, r3, #768	; 0x300
 8001e58:	f8c2 0440 	str.w	r0, [r2, #1088]	; 0x440
 8001e5c:	6221      	str	r1, [r4, #32]
 8001e5e:	07d9      	lsls	r1, r3, #31
 8001e60:	d5b7      	bpl.n	8001dd2 <HAL_RCCEx_PeriphCLKConfig+0x3a>
 8001e62:	f7ff f943 	bl	80010ec <HAL_GetTick>
 8001e66:	f241 3888 	movw	r8, #5000	; 0x1388
 8001e6a:	4607      	mov	r7, r0
 8001e6c:	6a23      	ldr	r3, [r4, #32]
 8001e6e:	079a      	lsls	r2, r3, #30
 8001e70:	d4af      	bmi.n	8001dd2 <HAL_RCCEx_PeriphCLKConfig+0x3a>
 8001e72:	f7ff f93b 	bl	80010ec <HAL_GetTick>
 8001e76:	1bc0      	subs	r0, r0, r7
 8001e78:	4540      	cmp	r0, r8
 8001e7a:	d9f7      	bls.n	8001e6c <HAL_RCCEx_PeriphCLKConfig+0xd4>
 8001e7c:	e7dc      	b.n	8001e38 <HAL_RCCEx_PeriphCLKConfig+0xa0>
 8001e7e:	bf00      	nop
 8001e80:	40021000 	.word	0x40021000
 8001e84:	40007000 	.word	0x40007000
 8001e88:	42420000 	.word	0x42420000

08001e8c <HAL_RCCEx_GetPeriphCLKFreq>:
 8001e8c:	4602      	mov	r2, r0
 8001e8e:	b570      	push	{r4, r5, r6, lr}
 8001e90:	4b33      	ldr	r3, [pc, #204]	; (8001f60 <HAL_RCCEx_GetPeriphCLKFreq+0xd4>)
 8001e92:	b086      	sub	sp, #24
 8001e94:	ad02      	add	r5, sp, #8
 8001e96:	f103 0610 	add.w	r6, r3, #16
 8001e9a:	462c      	mov	r4, r5
 8001e9c:	6818      	ldr	r0, [r3, #0]
 8001e9e:	6859      	ldr	r1, [r3, #4]
 8001ea0:	3308      	adds	r3, #8
 8001ea2:	c403      	stmia	r4!, {r0, r1}
 8001ea4:	42b3      	cmp	r3, r6
 8001ea6:	4625      	mov	r5, r4
 8001ea8:	d1f7      	bne.n	8001e9a <HAL_RCCEx_GetPeriphCLKFreq+0xe>
 8001eaa:	f240 2301 	movw	r3, #513	; 0x201
 8001eae:	2a02      	cmp	r2, #2
 8001eb0:	f8ad 3004 	strh.w	r3, [sp, #4]
 8001eb4:	d047      	beq.n	8001f46 <HAL_RCCEx_GetPeriphCLKFreq+0xba>
 8001eb6:	2a10      	cmp	r2, #16
 8001eb8:	d003      	beq.n	8001ec2 <HAL_RCCEx_GetPeriphCLKFreq+0x36>
 8001eba:	2a01      	cmp	r2, #1
 8001ebc:	d024      	beq.n	8001f08 <HAL_RCCEx_GetPeriphCLKFreq+0x7c>
 8001ebe:	2000      	movs	r0, #0
 8001ec0:	e036      	b.n	8001f30 <HAL_RCCEx_GetPeriphCLKFreq+0xa4>
 8001ec2:	4a28      	ldr	r2, [pc, #160]	; (8001f64 <HAL_RCCEx_GetPeriphCLKFreq+0xd8>)
 8001ec4:	6851      	ldr	r1, [r2, #4]
 8001ec6:	6810      	ldr	r0, [r2, #0]
 8001ec8:	f010 7080 	ands.w	r0, r0, #16777216	; 0x1000000
 8001ecc:	d030      	beq.n	8001f30 <HAL_RCCEx_GetPeriphCLKFreq+0xa4>
 8001ece:	f3c1 4383 	ubfx	r3, r1, #18, #4
 8001ed2:	3318      	adds	r3, #24
 8001ed4:	446b      	add	r3, sp
 8001ed6:	03c9      	lsls	r1, r1, #15
 8001ed8:	f813 0c10 	ldrb.w	r0, [r3, #-16]
 8001edc:	bf49      	itett	mi
 8001ede:	6853      	ldrmi	r3, [r2, #4]
 8001ee0:	4b21      	ldrpl	r3, [pc, #132]	; (8001f68 <HAL_RCCEx_GetPeriphCLKFreq+0xdc>)
 8001ee2:	f3c3 4340 	ubfxmi	r3, r3, #17, #1
 8001ee6:	3318      	addmi	r3, #24
 8001ee8:	bf41      	itttt	mi
 8001eea:	446b      	addmi	r3, sp
 8001eec:	f813 1c14 	ldrbmi.w	r1, [r3, #-20]
 8001ef0:	4b1e      	ldrmi	r3, [pc, #120]	; (8001f6c <HAL_RCCEx_GetPeriphCLKFreq+0xe0>)
 8001ef2:	fbb3 f3f1 	udivmi	r3, r3, r1
 8001ef6:	4358      	muls	r0, r3
 8001ef8:	6853      	ldr	r3, [r2, #4]
 8001efa:	025b      	lsls	r3, r3, #9
 8001efc:	d418      	bmi.n	8001f30 <HAL_RCCEx_GetPeriphCLKFreq+0xa4>
 8001efe:	2303      	movs	r3, #3
 8001f00:	0040      	lsls	r0, r0, #1
 8001f02:	fbb0 f0f3 	udiv	r0, r0, r3
 8001f06:	e013      	b.n	8001f30 <HAL_RCCEx_GetPeriphCLKFreq+0xa4>
 8001f08:	f240 3102 	movw	r1, #770	; 0x302
 8001f0c:	4a15      	ldr	r2, [pc, #84]	; (8001f64 <HAL_RCCEx_GetPeriphCLKFreq+0xd8>)
 8001f0e:	6a13      	ldr	r3, [r2, #32]
 8001f10:	4019      	ands	r1, r3
 8001f12:	f5b1 7f81 	cmp.w	r1, #258	; 0x102
 8001f16:	d01f      	beq.n	8001f58 <HAL_RCCEx_GetPeriphCLKFreq+0xcc>
 8001f18:	f403 7340 	and.w	r3, r3, #768	; 0x300
 8001f1c:	f5b3 7f00 	cmp.w	r3, #512	; 0x200
 8001f20:	d108      	bne.n	8001f34 <HAL_RCCEx_GetPeriphCLKFreq+0xa8>
 8001f22:	f649 4340 	movw	r3, #40000	; 0x9c40
 8001f26:	6a50      	ldr	r0, [r2, #36]	; 0x24
 8001f28:	f010 0002 	ands.w	r0, r0, #2
 8001f2c:	bf18      	it	ne
 8001f2e:	4618      	movne	r0, r3
 8001f30:	b006      	add	sp, #24
 8001f32:	bd70      	pop	{r4, r5, r6, pc}
 8001f34:	f5b3 7f40 	cmp.w	r3, #768	; 0x300
 8001f38:	d1c1      	bne.n	8001ebe <HAL_RCCEx_GetPeriphCLKFreq+0x32>
 8001f3a:	6810      	ldr	r0, [r2, #0]
 8001f3c:	f24f 4324 	movw	r3, #62500	; 0xf424
 8001f40:	f410 3000 	ands.w	r0, r0, #131072	; 0x20000
 8001f44:	e7f2      	b.n	8001f2c <HAL_RCCEx_GetPeriphCLKFreq+0xa0>
 8001f46:	f7ff ff17 	bl	8001d78 <HAL_RCC_GetPCLK2Freq>
 8001f4a:	4b06      	ldr	r3, [pc, #24]	; (8001f64 <HAL_RCCEx_GetPeriphCLKFreq+0xd8>)
 8001f4c:	685b      	ldr	r3, [r3, #4]
 8001f4e:	f3c3 3381 	ubfx	r3, r3, #14, #2
 8001f52:	3301      	adds	r3, #1
 8001f54:	005b      	lsls	r3, r3, #1
 8001f56:	e7d4      	b.n	8001f02 <HAL_RCCEx_GetPeriphCLKFreq+0x76>
 8001f58:	f44f 4000 	mov.w	r0, #32768	; 0x8000
 8001f5c:	e7e8      	b.n	8001f30 <HAL_RCCEx_GetPeriphCLKFreq+0xa4>
 8001f5e:	bf00      	nop
 8001f60:	08003566 	.word	0x08003566
 8001f64:	40021000 	.word	0x40021000
 8001f68:	003d0900 	.word	0x003d0900
 8001f6c:	007a1200 	.word	0x007a1200

08001f70 <RTC_ReadTimeCounter>:
 8001f70:	6803      	ldr	r3, [r0, #0]
 8001f72:	b530      	push	{r4, r5, lr}
 8001f74:	699a      	ldr	r2, [r3, #24]
 8001f76:	69d8      	ldr	r0, [r3, #28]
 8001f78:	6999      	ldr	r1, [r3, #24]
 8001f7a:	b295      	uxth	r5, r2
 8001f7c:	b28c      	uxth	r4, r1
 8001f7e:	42a5      	cmp	r5, r4
 8001f80:	bf17      	itett	ne
 8001f82:	69d8      	ldrne	r0, [r3, #28]
 8001f84:	b280      	uxtheq	r0, r0
 8001f86:	b280      	uxthne	r0, r0
 8001f88:	ea40 4001 	orrne.w	r0, r0, r1, lsl #16
 8001f8c:	bf08      	it	eq
 8001f8e:	ea40 4002 	orreq.w	r0, r0, r2, lsl #16
 8001f92:	bd30      	pop	{r4, r5, pc}

08001f94 <RTC_ReadAlarmCounter>:
 8001f94:	6803      	ldr	r3, [r0, #0]
 8001f96:	6a18      	ldr	r0, [r3, #32]
 8001f98:	6a5b      	ldr	r3, [r3, #36]	; 0x24
 8001f9a:	b29b      	uxth	r3, r3
 8001f9c:	ea43 4000 	orr.w	r0, r3, r0, lsl #16
 8001fa0:	4770      	bx	lr

08001fa2 <RTC_ByteToBcd2>:
 8001fa2:	2300      	movs	r3, #0
 8001fa4:	2809      	cmp	r0, #9
 8001fa6:	d803      	bhi.n	8001fb0 <RTC_ByteToBcd2+0xe>
 8001fa8:	ea40 1003 	orr.w	r0, r0, r3, lsl #4
 8001fac:	b2c0      	uxtb	r0, r0
 8001fae:	4770      	bx	lr
 8001fb0:	380a      	subs	r0, #10
 8001fb2:	3301      	adds	r3, #1
 8001fb4:	b2c0      	uxtb	r0, r0
 8001fb6:	e7f5      	b.n	8001fa4 <RTC_ByteToBcd2+0x2>

08001fb8 <RTC_Bcd2ToByte>:
 8001fb8:	220a      	movs	r2, #10
 8001fba:	0903      	lsrs	r3, r0, #4
 8001fbc:	f000 000f 	and.w	r0, r0, #15
 8001fc0:	fb02 0003 	mla	r0, r2, r3, r0
 8001fc4:	b2c0      	uxtb	r0, r0
 8001fc6:	4770      	bx	lr

08001fc8 <RTC_WeekDayNum>:
 8001fc8:	b530      	push	{r4, r5, lr}
 8001fca:	2517      	movs	r5, #23
 8001fcc:	2309      	movs	r3, #9
 8001fce:	434d      	muls	r5, r1
 8001fd0:	2902      	cmp	r1, #2
 8001fd2:	fbb5 f5f3 	udiv	r5, r5, r3
 8001fd6:	f500 64fa 	add.w	r4, r0, #2000	; 0x7d0
 8001fda:	d817      	bhi.n	800200c <RTC_WeekDayNum+0x44>
 8001fdc:	f200 73cf 	addw	r3, r0, #1999	; 0x7cf
 8001fe0:	1d10      	adds	r0, r2, #4
 8001fe2:	f44f 72c8 	mov.w	r2, #400	; 0x190
 8001fe6:	fbb3 f2f2 	udiv	r2, r3, r2
 8001fea:	4420      	add	r0, r4
 8001fec:	4428      	add	r0, r5
 8001fee:	eb00 0093 	add.w	r0, r0, r3, lsr #2
 8001ff2:	4410      	add	r0, r2
 8001ff4:	2264      	movs	r2, #100	; 0x64
 8001ff6:	fbb3 f3f2 	udiv	r3, r3, r2
 8001ffa:	1ac0      	subs	r0, r0, r3
 8001ffc:	2307      	movs	r3, #7
 8001ffe:	fbb0 f3f3 	udiv	r3, r0, r3
 8002002:	ebc3 03c3 	rsb	r3, r3, r3, lsl #3
 8002006:	1ac0      	subs	r0, r0, r3
 8002008:	b2c0      	uxtb	r0, r0
 800200a:	bd30      	pop	{r4, r5, pc}
 800200c:	f44f 73c8 	mov.w	r3, #400	; 0x190
 8002010:	fbb4 f3f3 	udiv	r3, r4, r3
 8002014:	1c90      	adds	r0, r2, #2
 8002016:	4420      	add	r0, r4
 8002018:	4428      	add	r0, r5
 800201a:	eb00 0094 	add.w	r0, r0, r4, lsr #2
 800201e:	4418      	add	r0, r3
 8002020:	2364      	movs	r3, #100	; 0x64
 8002022:	fbb4 f4f3 	udiv	r4, r4, r3
 8002026:	1b00      	subs	r0, r0, r4
 8002028:	e7e8      	b.n	8001ffc <RTC_WeekDayNum+0x34>

0800202a <RTC_EnterInitMode>:
 800202a:	b538      	push	{r3, r4, r5, lr}
 800202c:	4604      	mov	r4, r0
 800202e:	f7ff f85d 	bl	80010ec <HAL_GetTick>
 8002032:	4605      	mov	r5, r0
 8002034:	6823      	ldr	r3, [r4, #0]
 8002036:	685a      	ldr	r2, [r3, #4]
 8002038:	0692      	lsls	r2, r2, #26
 800203a:	d505      	bpl.n	8002048 <RTC_EnterInitMode+0x1e>
 800203c:	2000      	movs	r0, #0
 800203e:	685a      	ldr	r2, [r3, #4]
 8002040:	f042 0210 	orr.w	r2, r2, #16
 8002044:	605a      	str	r2, [r3, #4]
 8002046:	bd38      	pop	{r3, r4, r5, pc}
 8002048:	f7ff f850 	bl	80010ec <HAL_GetTick>
 800204c:	1b40      	subs	r0, r0, r5
 800204e:	f5b0 7f7a 	cmp.w	r0, #1000	; 0x3e8
 8002052:	d9ef      	bls.n	8002034 <RTC_EnterInitMode+0xa>
 8002054:	2003      	movs	r0, #3
 8002056:	e7f6      	b.n	8002046 <RTC_EnterInitMode+0x1c>

08002058 <RTC_ExitInitMode>:
 8002058:	6802      	ldr	r2, [r0, #0]
 800205a:	b538      	push	{r3, r4, r5, lr}
 800205c:	6853      	ldr	r3, [r2, #4]
 800205e:	4604      	mov	r4, r0
 8002060:	f023 0310 	bic.w	r3, r3, #16
 8002064:	6053      	str	r3, [r2, #4]
 8002066:	f7ff f841 	bl	80010ec <HAL_GetTick>
 800206a:	4605      	mov	r5, r0
 800206c:	6823      	ldr	r3, [r4, #0]
 800206e:	685b      	ldr	r3, [r3, #4]
 8002070:	069b      	lsls	r3, r3, #26
 8002072:	d501      	bpl.n	8002078 <RTC_ExitInitMode+0x20>
 8002074:	2000      	movs	r0, #0
 8002076:	bd38      	pop	{r3, r4, r5, pc}
 8002078:	f7ff f838 	bl	80010ec <HAL_GetTick>
 800207c:	1b40      	subs	r0, r0, r5
 800207e:	f5b0 7f7a 	cmp.w	r0, #1000	; 0x3e8
 8002082:	d9f3      	bls.n	800206c <RTC_ExitInitMode+0x14>
 8002084:	2003      	movs	r0, #3
 8002086:	e7f6      	b.n	8002076 <RTC_ExitInitMode+0x1e>

08002088 <RTC_WriteTimeCounter>:
 8002088:	b538      	push	{r3, r4, r5, lr}
 800208a:	4605      	mov	r5, r0
 800208c:	460c      	mov	r4, r1
 800208e:	f7ff ffcc 	bl	800202a <RTC_EnterInitMode>
 8002092:	b958      	cbnz	r0, 80020ac <RTC_WriteTimeCounter+0x24>
 8002094:	682b      	ldr	r3, [r5, #0]
 8002096:	0c22      	lsrs	r2, r4, #16
 8002098:	b2a4      	uxth	r4, r4
 800209a:	619a      	str	r2, [r3, #24]
 800209c:	4628      	mov	r0, r5
 800209e:	61dc      	str	r4, [r3, #28]
 80020a0:	f7ff ffda 	bl	8002058 <RTC_ExitInitMode>
 80020a4:	3800      	subs	r0, #0
 80020a6:	bf18      	it	ne
 80020a8:	2001      	movne	r0, #1
 80020aa:	bd38      	pop	{r3, r4, r5, pc}
 80020ac:	2001      	movs	r0, #1
 80020ae:	e7fc      	b.n	80020aa <RTC_WriteTimeCounter+0x22>

080020b0 <RTC_WriteAlarmCounter>:
 80020b0:	b538      	push	{r3, r4, r5, lr}
 80020b2:	4605      	mov	r5, r0
 80020b4:	460c      	mov	r4, r1
 80020b6:	f7ff ffb8 	bl	800202a <RTC_EnterInitMode>
 80020ba:	b958      	cbnz	r0, 80020d4 <RTC_WriteAlarmCounter+0x24>
 80020bc:	682b      	ldr	r3, [r5, #0]
 80020be:	0c22      	lsrs	r2, r4, #16
 80020c0:	b2a4      	uxth	r4, r4
 80020c2:	621a      	str	r2, [r3, #32]
 80020c4:	4628      	mov	r0, r5
 80020c6:	625c      	str	r4, [r3, #36]	; 0x24
 80020c8:	f7ff ffc6 	bl	8002058 <RTC_ExitInitMode>
 80020cc:	3800      	subs	r0, #0
 80020ce:	bf18      	it	ne
 80020d0:	2001      	movne	r0, #1
 80020d2:	bd38      	pop	{r3, r4, r5, pc}
 80020d4:	2001      	movs	r0, #1
 80020d6:	e7fc      	b.n	80020d2 <RTC_WriteAlarmCounter+0x22>

080020d8 <HAL_RTC_SetTime>:
 80020d8:	b5f8      	push	{r3, r4, r5, r6, r7, lr}
 80020da:	4604      	mov	r4, r0
 80020dc:	b1e0      	cbz	r0, 8002118 <HAL_RTC_SetTime+0x40>
 80020de:	b1d9      	cbz	r1, 8002118 <HAL_RTC_SetTime+0x40>
 80020e0:	7c03      	ldrb	r3, [r0, #16]
 80020e2:	2502      	movs	r5, #2
 80020e4:	2b01      	cmp	r3, #1
 80020e6:	d045      	beq.n	8002174 <HAL_RTC_SetTime+0x9c>
 80020e8:	2301      	movs	r3, #1
 80020ea:	7445      	strb	r5, [r0, #17]
 80020ec:	7403      	strb	r3, [r0, #16]
 80020ee:	7808      	ldrb	r0, [r1, #0]
 80020f0:	784e      	ldrb	r6, [r1, #1]
 80020f2:	788f      	ldrb	r7, [r1, #2]
 80020f4:	b992      	cbnz	r2, 800211c <HAL_RTC_SetTime+0x44>
 80020f6:	233c      	movs	r3, #60	; 0x3c
 80020f8:	435e      	muls	r6, r3
 80020fa:	f44f 6361 	mov.w	r3, #3600	; 0xe10
 80020fe:	fb03 6600 	mla	r6, r3, r0, r6
 8002102:	443e      	add	r6, r7
 8002104:	4631      	mov	r1, r6
 8002106:	4620      	mov	r0, r4
 8002108:	f7ff ffbe 	bl	8002088 <RTC_WriteTimeCounter>
 800210c:	4605      	mov	r5, r0
 800210e:	b1b8      	cbz	r0, 8002140 <HAL_RTC_SetTime+0x68>
 8002110:	2304      	movs	r3, #4
 8002112:	7463      	strb	r3, [r4, #17]
 8002114:	2300      	movs	r3, #0
 8002116:	7423      	strb	r3, [r4, #16]
 8002118:	2501      	movs	r5, #1
 800211a:	e02b      	b.n	8002174 <HAL_RTC_SetTime+0x9c>
 800211c:	f7ff ff4c 	bl	8001fb8 <RTC_Bcd2ToByte>
 8002120:	4605      	mov	r5, r0
 8002122:	4630      	mov	r0, r6
 8002124:	f7ff ff48 	bl	8001fb8 <RTC_Bcd2ToByte>
 8002128:	233c      	movs	r3, #60	; 0x3c
 800212a:	fb03 f100 	mul.w	r1, r3, r0
 800212e:	f44f 6361 	mov.w	r3, #3600	; 0xe10
 8002132:	4638      	mov	r0, r7
 8002134:	fb03 1105 	mla	r1, r3, r5, r1
 8002138:	f7ff ff3e 	bl	8001fb8 <RTC_Bcd2ToByte>
 800213c:	1846      	adds	r6, r0, r1
 800213e:	e7e1      	b.n	8002104 <HAL_RTC_SetTime+0x2c>
 8002140:	6822      	ldr	r2, [r4, #0]
 8002142:	4620      	mov	r0, r4
 8002144:	6853      	ldr	r3, [r2, #4]
 8002146:	f023 0305 	bic.w	r3, r3, #5
 800214a:	6053      	str	r3, [r2, #4]
 800214c:	f7ff ff22 	bl	8001f94 <RTC_ReadAlarmCounter>
 8002150:	4286      	cmp	r6, r0
 8002152:	d90b      	bls.n	800216c <HAL_RTC_SetTime+0x94>
 8002154:	f500 31a8 	add.w	r1, r0, #86016	; 0x15000
 8002158:	f501 71c0 	add.w	r1, r1, #384	; 0x180
 800215c:	4620      	mov	r0, r4
 800215e:	f7ff ffa7 	bl	80020b0 <RTC_WriteAlarmCounter>
 8002162:	b118      	cbz	r0, 800216c <HAL_RTC_SetTime+0x94>
 8002164:	2304      	movs	r3, #4
 8002166:	7425      	strb	r5, [r4, #16]
 8002168:	7463      	strb	r3, [r4, #17]
 800216a:	e7d5      	b.n	8002118 <HAL_RTC_SetTime+0x40>
 800216c:	2301      	movs	r3, #1
 800216e:	7463      	strb	r3, [r4, #17]
 8002170:	2300      	movs	r3, #0
 8002172:	7423      	strb	r3, [r4, #16]
 8002174:	4628      	mov	r0, r5
 8002176:	bdf8      	pop	{r3, r4, r5, r6, r7, pc}

08002178 <HAL_RTC_GetTime>:
 8002178:	e92d 47f0 	stmdb	sp!, {r4, r5, r6, r7, r8, r9, sl, lr}
 800217c:	460e      	mov	r6, r1
 800217e:	4617      	mov	r7, r2
 8002180:	4605      	mov	r5, r0
 8002182:	b910      	cbnz	r0, 800218a <HAL_RTC_GetTime+0x12>
 8002184:	2001      	movs	r0, #1
 8002186:	e8bd 87f0 	ldmia.w	sp!, {r4, r5, r6, r7, r8, r9, sl, pc}
 800218a:	2900      	cmp	r1, #0
 800218c:	d0fa      	beq.n	8002184 <HAL_RTC_GetTime+0xc>
 800218e:	6803      	ldr	r3, [r0, #0]
 8002190:	685b      	ldr	r3, [r3, #4]
 8002192:	f013 0804 	ands.w	r8, r3, #4
 8002196:	d1f5      	bne.n	8002184 <HAL_RTC_GetTime+0xc>
 8002198:	f7ff feea 	bl	8001f70 <RTC_ReadTimeCounter>
 800219c:	f44f 6361 	mov.w	r3, #3600	; 0xe10
 80021a0:	fbb0 f2f3 	udiv	r2, r0, r3
 80021a4:	4604      	mov	r4, r0
 80021a6:	fb03 0312 	mls	r3, r3, r2, r0
 80021aa:	203c      	movs	r0, #60	; 0x3c
 80021ac:	fbb3 f1f0 	udiv	r1, r3, r0
 80021b0:	fb00 3311 	mls	r3, r0, r1, r3
 80021b4:	70b3      	strb	r3, [r6, #2]
 80021b6:	4b4b      	ldr	r3, [pc, #300]	; (80022e4 <HAL_RTC_GetTime+0x16c>)
 80021b8:	7071      	strb	r1, [r6, #1]
 80021ba:	429c      	cmp	r4, r3
 80021bc:	f240 808e 	bls.w	80022dc <HAL_RTC_GetTime+0x164>
 80021c0:	2318      	movs	r3, #24
 80021c2:	fbb2 f9f3 	udiv	r9, r2, r3
 80021c6:	fb03 2219 	mls	r2, r3, r9, r2
 80021ca:	4628      	mov	r0, r5
 80021cc:	7032      	strb	r2, [r6, #0]
 80021ce:	f7ff fee1 	bl	8001f94 <RTC_ReadAlarmCounter>
 80021d2:	f1b0 3fff 	cmp.w	r0, #4294967295
 80021d6:	4682      	mov	sl, r0
 80021d8:	d005      	beq.n	80021e6 <HAL_RTC_GetTime+0x6e>
 80021da:	4284      	cmp	r4, r0
 80021dc:	bf2c      	ite	cs
 80021de:	f04f 3aff 	movcs.w	sl, #4294967295
 80021e2:	eba0 0a04 	subcc.w	sl, r0, r4
 80021e6:	4b40      	ldr	r3, [pc, #256]	; (80022e8 <HAL_RTC_GetTime+0x170>)
 80021e8:	4628      	mov	r0, r5
 80021ea:	fb03 4419 	mls	r4, r3, r9, r4
 80021ee:	4621      	mov	r1, r4
 80021f0:	f7ff ff4a 	bl	8002088 <RTC_WriteTimeCounter>
 80021f4:	2800      	cmp	r0, #0
 80021f6:	d1c5      	bne.n	8002184 <HAL_RTC_GetTime+0xc>
 80021f8:	f1ba 3fff 	cmp.w	sl, #4294967295
 80021fc:	d02a      	beq.n	8002254 <HAL_RTC_GetTime+0xdc>
 80021fe:	eb04 010a 	add.w	r1, r4, sl
 8002202:	4628      	mov	r0, r5
 8002204:	f7ff ff54 	bl	80020b0 <RTC_WriteAlarmCounter>
 8002208:	2800      	cmp	r0, #0
 800220a:	d1bb      	bne.n	8002184 <HAL_RTC_GetTime+0xc>
 800220c:	f04f 0c01 	mov.w	ip, #1
 8002210:	f241 5eaa 	movw	lr, #5546	; 0x15aa
 8002214:	2264      	movs	r2, #100	; 0x64
 8002216:	f44f 71c8 	mov.w	r1, #400	; 0x190
 800221a:	7be8      	ldrb	r0, [r5, #15]
 800221c:	7b6c      	ldrb	r4, [r5, #13]
 800221e:	7bab      	ldrb	r3, [r5, #14]
 8002220:	45c1      	cmp	r9, r8
 8002222:	d119      	bne.n	8002258 <HAL_RTC_GetTime+0xe0>
 8002224:	b2e1      	uxtb	r1, r4
 8002226:	b2da      	uxtb	r2, r3
 8002228:	73e8      	strb	r0, [r5, #15]
 800222a:	7369      	strb	r1, [r5, #13]
 800222c:	73aa      	strb	r2, [r5, #14]
 800222e:	f7ff fecb 	bl	8001fc8 <RTC_WeekDayNum>
 8002232:	7328      	strb	r0, [r5, #12]
 8002234:	2f00      	cmp	r7, #0
 8002236:	d053      	beq.n	80022e0 <HAL_RTC_GetTime+0x168>
 8002238:	7830      	ldrb	r0, [r6, #0]
 800223a:	f7ff feb2 	bl	8001fa2 <RTC_ByteToBcd2>
 800223e:	7030      	strb	r0, [r6, #0]
 8002240:	7870      	ldrb	r0, [r6, #1]
 8002242:	f7ff feae 	bl	8001fa2 <RTC_ByteToBcd2>
 8002246:	7070      	strb	r0, [r6, #1]
 8002248:	78b0      	ldrb	r0, [r6, #2]
 800224a:	f7ff feaa 	bl	8001fa2 <RTC_ByteToBcd2>
 800224e:	70b0      	strb	r0, [r6, #2]
 8002250:	2000      	movs	r0, #0
 8002252:	e798      	b.n	8002186 <HAL_RTC_GetTime+0xe>
 8002254:	4651      	mov	r1, sl
 8002256:	e7d4      	b.n	8002202 <HAL_RTC_GetTime+0x8a>
 8002258:	2c0c      	cmp	r4, #12
 800225a:	d809      	bhi.n	8002270 <HAL_RTC_GetTime+0xf8>
 800225c:	fa0c fa04 	lsl.w	sl, ip, r4
 8002260:	ea1a 0f0e 	tst.w	sl, lr
 8002264:	d107      	bne.n	8002276 <HAL_RTC_GetTime+0xfe>
 8002266:	f41a 6f25 	tst.w	sl, #2640	; 0xa50
 800226a:	d111      	bne.n	8002290 <HAL_RTC_GetTime+0x118>
 800226c:	2c02      	cmp	r4, #2
 800226e:	d012      	beq.n	8002296 <HAL_RTC_GetTime+0x11e>
 8002270:	f108 0801 	add.w	r8, r8, #1
 8002274:	e7d4      	b.n	8002220 <HAL_RTC_GetTime+0xa8>
 8002276:	2b1e      	cmp	r3, #30
 8002278:	d801      	bhi.n	800227e <HAL_RTC_GetTime+0x106>
 800227a:	3301      	adds	r3, #1
 800227c:	e7f8      	b.n	8002270 <HAL_RTC_GetTime+0xf8>
 800227e:	2c0c      	cmp	r4, #12
 8002280:	d002      	beq.n	8002288 <HAL_RTC_GetTime+0x110>
 8002282:	2301      	movs	r3, #1
 8002284:	3401      	adds	r4, #1
 8002286:	e7f3      	b.n	8002270 <HAL_RTC_GetTime+0xf8>
 8002288:	2301      	movs	r3, #1
 800228a:	3001      	adds	r0, #1
 800228c:	461c      	mov	r4, r3
 800228e:	e7ef      	b.n	8002270 <HAL_RTC_GetTime+0xf8>
 8002290:	2b1d      	cmp	r3, #29
 8002292:	d8f6      	bhi.n	8002282 <HAL_RTC_GetTime+0x10a>
 8002294:	e7f1      	b.n	800227a <HAL_RTC_GetTime+0x102>
 8002296:	2b1b      	cmp	r3, #27
 8002298:	d9ef      	bls.n	800227a <HAL_RTC_GetTime+0x102>
 800229a:	2b1c      	cmp	r3, #28
 800229c:	d117      	bne.n	80022ce <HAL_RTC_GetTime+0x156>
 800229e:	f010 0f03 	tst.w	r0, #3
 80022a2:	b283      	uxth	r3, r0
 80022a4:	d115      	bne.n	80022d2 <HAL_RTC_GetTime+0x15a>
 80022a6:	fbb3 faf2 	udiv	sl, r3, r2
 80022aa:	fb02 3a1a 	mls	sl, r2, sl, r3
 80022ae:	fa1f fa8a 	uxth.w	sl, sl
 80022b2:	f1ba 0f00 	cmp.w	sl, #0
 80022b6:	d10f      	bne.n	80022d8 <HAL_RTC_GetTime+0x160>
 80022b8:	fbb3 faf1 	udiv	sl, r3, r1
 80022bc:	fb01 331a 	mls	r3, r1, sl, r3
 80022c0:	b29b      	uxth	r3, r3
 80022c2:	2b00      	cmp	r3, #0
 80022c4:	bf16      	itet	ne
 80022c6:	2301      	movne	r3, #1
 80022c8:	231d      	moveq	r3, #29
 80022ca:	2403      	movne	r4, #3
 80022cc:	e7d0      	b.n	8002270 <HAL_RTC_GetTime+0xf8>
 80022ce:	2b1d      	cmp	r3, #29
 80022d0:	d1ce      	bne.n	8002270 <HAL_RTC_GetTime+0xf8>
 80022d2:	2301      	movs	r3, #1
 80022d4:	2403      	movs	r4, #3
 80022d6:	e7cb      	b.n	8002270 <HAL_RTC_GetTime+0xf8>
 80022d8:	231d      	movs	r3, #29
 80022da:	e7c9      	b.n	8002270 <HAL_RTC_GetTime+0xf8>
 80022dc:	7032      	strb	r2, [r6, #0]
 80022de:	e7a9      	b.n	8002234 <HAL_RTC_GetTime+0xbc>
 80022e0:	4638      	mov	r0, r7
 80022e2:	e750      	b.n	8002186 <HAL_RTC_GetTime+0xe>
 80022e4:	0001517f 	.word	0x0001517f
 80022e8:	00015180 	.word	0x00015180

080022ec <HAL_RTC_WaitForSynchro>:
 80022ec:	b538      	push	{r3, r4, r5, lr}
 80022ee:	4604      	mov	r4, r0
 80022f0:	b1a8      	cbz	r0, 800231e <HAL_RTC_WaitForSynchro+0x32>
 80022f2:	6802      	ldr	r2, [r0, #0]
 80022f4:	6853      	ldr	r3, [r2, #4]
 80022f6:	f023 0308 	bic.w	r3, r3, #8
 80022fa:	6053      	str	r3, [r2, #4]
 80022fc:	f7fe fef6 	bl	80010ec <HAL_GetTick>
 8002300:	4605      	mov	r5, r0
 8002302:	6823      	ldr	r3, [r4, #0]
 8002304:	685b      	ldr	r3, [r3, #4]
 8002306:	071b      	lsls	r3, r3, #28
 8002308:	d501      	bpl.n	800230e <HAL_RTC_WaitForSynchro+0x22>
 800230a:	2000      	movs	r0, #0
 800230c:	bd38      	pop	{r3, r4, r5, pc}
 800230e:	f7fe feed 	bl	80010ec <HAL_GetTick>
 8002312:	1b40      	subs	r0, r0, r5
 8002314:	f5b0 7f7a 	cmp.w	r0, #1000	; 0x3e8
 8002318:	d9f3      	bls.n	8002302 <HAL_RTC_WaitForSynchro+0x16>
 800231a:	2003      	movs	r0, #3
 800231c:	e7f6      	b.n	800230c <HAL_RTC_WaitForSynchro+0x20>
 800231e:	2001      	movs	r0, #1
 8002320:	e7f4      	b.n	800230c <HAL_RTC_WaitForSynchro+0x20>
	...

08002324 <HAL_RTC_Init>:
 8002324:	b510      	push	{r4, lr}
 8002326:	4604      	mov	r4, r0
 8002328:	b170      	cbz	r0, 8002348 <HAL_RTC_Init+0x24>
 800232a:	7c43      	ldrb	r3, [r0, #17]
 800232c:	f003 02ff 	and.w	r2, r3, #255	; 0xff
 8002330:	b913      	cbnz	r3, 8002338 <HAL_RTC_Init+0x14>
 8002332:	7402      	strb	r2, [r0, #16]
 8002334:	f7fe fd1c 	bl	8000d70 <HAL_RTC_MspInit>
 8002338:	2302      	movs	r3, #2
 800233a:	4620      	mov	r0, r4
 800233c:	7463      	strb	r3, [r4, #17]
 800233e:	f7ff ffd5 	bl	80022ec <HAL_RTC_WaitForSynchro>
 8002342:	b118      	cbz	r0, 800234c <HAL_RTC_Init+0x28>
 8002344:	2304      	movs	r3, #4
 8002346:	7463      	strb	r3, [r4, #17]
 8002348:	2001      	movs	r0, #1
 800234a:	e036      	b.n	80023ba <HAL_RTC_Init+0x96>
 800234c:	4620      	mov	r0, r4
 800234e:	f7ff fe6c 	bl	800202a <RTC_EnterInitMode>
 8002352:	2800      	cmp	r0, #0
 8002354:	d1f6      	bne.n	8002344 <HAL_RTC_Init+0x20>
 8002356:	6822      	ldr	r2, [r4, #0]
 8002358:	68a1      	ldr	r1, [r4, #8]
 800235a:	6853      	ldr	r3, [r2, #4]
 800235c:	f023 0307 	bic.w	r3, r3, #7
 8002360:	6053      	str	r3, [r2, #4]
 8002362:	4a16      	ldr	r2, [pc, #88]	; (80023bc <HAL_RTC_Init+0x98>)
 8002364:	b119      	cbz	r1, 800236e <HAL_RTC_Init+0x4a>
 8002366:	6b13      	ldr	r3, [r2, #48]	; 0x30
 8002368:	f023 0301 	bic.w	r3, r3, #1
 800236c:	6313      	str	r3, [r2, #48]	; 0x30
 800236e:	6ad3      	ldr	r3, [r2, #44]	; 0x2c
 8002370:	f423 7360 	bic.w	r3, r3, #896	; 0x380
 8002374:	430b      	orrs	r3, r1
 8002376:	62d3      	str	r3, [r2, #44]	; 0x2c
 8002378:	6860      	ldr	r0, [r4, #4]
 800237a:	1c43      	adds	r3, r0, #1
 800237c:	d105      	bne.n	800238a <HAL_RTC_Init+0x66>
 800237e:	2001      	movs	r0, #1
 8002380:	f7ff fd84 	bl	8001e8c <HAL_RCCEx_GetPeriphCLKFreq>
 8002384:	2800      	cmp	r0, #0
 8002386:	d0dd      	beq.n	8002344 <HAL_RTC_Init+0x20>
 8002388:	3801      	subs	r0, #1
 800238a:	6822      	ldr	r2, [r4, #0]
 800238c:	6893      	ldr	r3, [r2, #8]
 800238e:	f023 030f 	bic.w	r3, r3, #15
 8002392:	ea43 4310 	orr.w	r3, r3, r0, lsr #16
 8002396:	6093      	str	r3, [r2, #8]
 8002398:	68d3      	ldr	r3, [r2, #12]
 800239a:	b280      	uxth	r0, r0
 800239c:	0c1b      	lsrs	r3, r3, #16
 800239e:	041b      	lsls	r3, r3, #16
 80023a0:	4303      	orrs	r3, r0
 80023a2:	60d3      	str	r3, [r2, #12]
 80023a4:	4620      	mov	r0, r4
 80023a6:	f7ff fe57 	bl	8002058 <RTC_ExitInitMode>
 80023aa:	2301      	movs	r3, #1
 80023ac:	b110      	cbz	r0, 80023b4 <HAL_RTC_Init+0x90>
 80023ae:	2204      	movs	r2, #4
 80023b0:	7462      	strb	r2, [r4, #17]
 80023b2:	e7c9      	b.n	8002348 <HAL_RTC_Init+0x24>
 80023b4:	7363      	strb	r3, [r4, #13]
 80023b6:	81e3      	strh	r3, [r4, #14]
 80023b8:	7463      	strb	r3, [r4, #17]
 80023ba:	bd10      	pop	{r4, pc}
 80023bc:	40006c00 	.word	0x40006c00

080023c0 <HAL_RTCEx_SetSecond_IT>:
 80023c0:	4603      	mov	r3, r0
 80023c2:	b170      	cbz	r0, 80023e2 <HAL_RTCEx_SetSecond_IT+0x22>
 80023c4:	7c02      	ldrb	r2, [r0, #16]
 80023c6:	2002      	movs	r0, #2
 80023c8:	2a01      	cmp	r2, #1
 80023ca:	d00b      	beq.n	80023e4 <HAL_RTCEx_SetSecond_IT+0x24>
 80023cc:	6819      	ldr	r1, [r3, #0]
 80023ce:	7458      	strb	r0, [r3, #17]
 80023d0:	680a      	ldr	r2, [r1, #0]
 80023d2:	2000      	movs	r0, #0
 80023d4:	f042 0201 	orr.w	r2, r2, #1
 80023d8:	600a      	str	r2, [r1, #0]
 80023da:	2201      	movs	r2, #1
 80023dc:	7418      	strb	r0, [r3, #16]
 80023de:	745a      	strb	r2, [r3, #17]
 80023e0:	4770      	bx	lr
 80023e2:	2001      	movs	r0, #1
 80023e4:	4770      	bx	lr

080023e6 <HAL_RTCEx_RTCEventErrorCallback>:
 80023e6:	4770      	bx	lr

080023e8 <HAL_RTCEx_RTCIRQHandler>:
 80023e8:	6803      	ldr	r3, [r0, #0]
 80023ea:	b510      	push	{r4, lr}
 80023ec:	681a      	ldr	r2, [r3, #0]
 80023ee:	4604      	mov	r4, r0
 80023f0:	07d1      	lsls	r1, r2, #31
 80023f2:	d511      	bpl.n	8002418 <HAL_RTCEx_RTCIRQHandler+0x30>
 80023f4:	685a      	ldr	r2, [r3, #4]
 80023f6:	07d2      	lsls	r2, r2, #31
 80023f8:	d50e      	bpl.n	8002418 <HAL_RTCEx_RTCIRQHandler+0x30>
 80023fa:	685b      	ldr	r3, [r3, #4]
 80023fc:	075b      	lsls	r3, r3, #29
 80023fe:	d50c      	bpl.n	800241a <HAL_RTCEx_RTCIRQHandler+0x32>
 8002400:	f7ff fff1 	bl	80023e6 <HAL_RTCEx_RTCEventErrorCallback>
 8002404:	f06f 0204 	mvn.w	r2, #4
 8002408:	6823      	ldr	r3, [r4, #0]
 800240a:	605a      	str	r2, [r3, #4]
 800240c:	2304      	movs	r3, #4
 800240e:	f06f 0201 	mvn.w	r2, #1
 8002412:	7463      	strb	r3, [r4, #17]
 8002414:	6823      	ldr	r3, [r4, #0]
 8002416:	605a      	str	r2, [r3, #4]
 8002418:	bd10      	pop	{r4, pc}
 800241a:	f7fe f8db 	bl	80005d4 <HAL_RTCEx_RTCEventCallback>
 800241e:	2301      	movs	r3, #1
 8002420:	e7f5      	b.n	800240e <HAL_RTCEx_RTCIRQHandler+0x26>
	...

08002424 <TIM_OC1_SetConfig>:
 8002424:	6a03      	ldr	r3, [r0, #32]
 8002426:	b570      	push	{r4, r5, r6, lr}
 8002428:	f023 0301 	bic.w	r3, r3, #1
 800242c:	6203      	str	r3, [r0, #32]
 800242e:	6a03      	ldr	r3, [r0, #32]
 8002430:	6844      	ldr	r4, [r0, #4]
 8002432:	6982      	ldr	r2, [r0, #24]
 8002434:	680d      	ldr	r5, [r1, #0]
 8002436:	f022 0273 	bic.w	r2, r2, #115	; 0x73
 800243a:	432a      	orrs	r2, r5
 800243c:	688d      	ldr	r5, [r1, #8]
 800243e:	f023 0302 	bic.w	r3, r3, #2
 8002442:	432b      	orrs	r3, r5
 8002444:	4d0a      	ldr	r5, [pc, #40]	; (8002470 <TIM_OC1_SetConfig+0x4c>)
 8002446:	42a8      	cmp	r0, r5
 8002448:	d10b      	bne.n	8002462 <TIM_OC1_SetConfig+0x3e>
 800244a:	68cd      	ldr	r5, [r1, #12]
 800244c:	f023 0308 	bic.w	r3, r3, #8
 8002450:	432b      	orrs	r3, r5
 8002452:	f424 7440 	bic.w	r4, r4, #768	; 0x300
 8002456:	e9d1 5605 	ldrd	r5, r6, [r1, #20]
 800245a:	4335      	orrs	r5, r6
 800245c:	f023 0304 	bic.w	r3, r3, #4
 8002460:	432c      	orrs	r4, r5
 8002462:	6044      	str	r4, [r0, #4]
 8002464:	6182      	str	r2, [r0, #24]
 8002466:	684a      	ldr	r2, [r1, #4]
 8002468:	6342      	str	r2, [r0, #52]	; 0x34
 800246a:	6203      	str	r3, [r0, #32]
 800246c:	bd70      	pop	{r4, r5, r6, pc}
 800246e:	bf00      	nop
 8002470:	40012c00 	.word	0x40012c00

08002474 <TIM_OC3_SetConfig>:
 8002474:	6a03      	ldr	r3, [r0, #32]
 8002476:	b570      	push	{r4, r5, r6, lr}
 8002478:	f423 7380 	bic.w	r3, r3, #256	; 0x100
 800247c:	6203      	str	r3, [r0, #32]
 800247e:	6a03      	ldr	r3, [r0, #32]
 8002480:	6844      	ldr	r4, [r0, #4]
 8002482:	69c2      	ldr	r2, [r0, #28]
 8002484:	680d      	ldr	r5, [r1, #0]
 8002486:	f022 0273 	bic.w	r2, r2, #115	; 0x73
 800248a:	432a      	orrs	r2, r5
 800248c:	688d      	ldr	r5, [r1, #8]
 800248e:	f423 7300 	bic.w	r3, r3, #512	; 0x200
 8002492:	ea43 2305 	orr.w	r3, r3, r5, lsl #8
 8002496:	4d0b      	ldr	r5, [pc, #44]	; (80024c4 <TIM_OC3_SetConfig+0x50>)
 8002498:	42a8      	cmp	r0, r5
 800249a:	d10d      	bne.n	80024b8 <TIM_OC3_SetConfig+0x44>
 800249c:	68cd      	ldr	r5, [r1, #12]
 800249e:	f423 6300 	bic.w	r3, r3, #2048	; 0x800
 80024a2:	ea43 2305 	orr.w	r3, r3, r5, lsl #8
 80024a6:	f424 5440 	bic.w	r4, r4, #12288	; 0x3000
 80024aa:	e9d1 5605 	ldrd	r5, r6, [r1, #20]
 80024ae:	4335      	orrs	r5, r6
 80024b0:	f423 6380 	bic.w	r3, r3, #1024	; 0x400
 80024b4:	ea44 1405 	orr.w	r4, r4, r5, lsl #4
 80024b8:	6044      	str	r4, [r0, #4]
 80024ba:	61c2      	str	r2, [r0, #28]
 80024bc:	684a      	ldr	r2, [r1, #4]
 80024be:	63c2      	str	r2, [r0, #60]	; 0x3c
 80024c0:	6203      	str	r3, [r0, #32]
 80024c2:	bd70      	pop	{r4, r5, r6, pc}
 80024c4:	40012c00 	.word	0x40012c00

080024c8 <TIM_OC4_SetConfig>:
 80024c8:	6a03      	ldr	r3, [r0, #32]
 80024ca:	b530      	push	{r4, r5, lr}
 80024cc:	f423 5380 	bic.w	r3, r3, #4096	; 0x1000
 80024d0:	6203      	str	r3, [r0, #32]
 80024d2:	6a03      	ldr	r3, [r0, #32]
 80024d4:	6844      	ldr	r4, [r0, #4]
 80024d6:	69c2      	ldr	r2, [r0, #28]
 80024d8:	680d      	ldr	r5, [r1, #0]
 80024da:	f422 42e6 	bic.w	r2, r2, #29440	; 0x7300
 80024de:	ea42 2205 	orr.w	r2, r2, r5, lsl #8
 80024e2:	688d      	ldr	r5, [r1, #8]
 80024e4:	f423 5300 	bic.w	r3, r3, #8192	; 0x2000
 80024e8:	ea43 3305 	orr.w	r3, r3, r5, lsl #12
 80024ec:	4d06      	ldr	r5, [pc, #24]	; (8002508 <TIM_OC4_SetConfig+0x40>)
 80024ee:	42a8      	cmp	r0, r5
 80024f0:	bf02      	ittt	eq
 80024f2:	694d      	ldreq	r5, [r1, #20]
 80024f4:	f424 4480 	biceq.w	r4, r4, #16384	; 0x4000
 80024f8:	ea44 1485 	orreq.w	r4, r4, r5, lsl #6
 80024fc:	6044      	str	r4, [r0, #4]
 80024fe:	61c2      	str	r2, [r0, #28]
 8002500:	684a      	ldr	r2, [r1, #4]
 8002502:	6402      	str	r2, [r0, #64]	; 0x40
 8002504:	6203      	str	r3, [r0, #32]
 8002506:	bd30      	pop	{r4, r5, pc}
 8002508:	40012c00 	.word	0x40012c00

0800250c <HAL_TIM_Base_Start_IT>:
 800250c:	6803      	ldr	r3, [r0, #0]
 800250e:	2000      	movs	r0, #0
 8002510:	68da      	ldr	r2, [r3, #12]
 8002512:	f042 0201 	orr.w	r2, r2, #1
 8002516:	60da      	str	r2, [r3, #12]
 8002518:	689a      	ldr	r2, [r3, #8]
 800251a:	f002 0207 	and.w	r2, r2, #7
 800251e:	2a06      	cmp	r2, #6
 8002520:	bf1e      	ittt	ne
 8002522:	681a      	ldrne	r2, [r3, #0]
 8002524:	f042 0201 	orrne.w	r2, r2, #1
 8002528:	601a      	strne	r2, [r3, #0]
 800252a:	4770      	bx	lr

0800252c <HAL_TIM_Base_Stop_IT>:
 800252c:	6803      	ldr	r3, [r0, #0]
 800252e:	68da      	ldr	r2, [r3, #12]
 8002530:	f022 0201 	bic.w	r2, r2, #1
 8002534:	60da      	str	r2, [r3, #12]
 8002536:	f241 1211 	movw	r2, #4369	; 0x1111
 800253a:	6a19      	ldr	r1, [r3, #32]
 800253c:	4211      	tst	r1, r2
 800253e:	d108      	bne.n	8002552 <HAL_TIM_Base_Stop_IT+0x26>
 8002540:	f240 4244 	movw	r2, #1092	; 0x444
 8002544:	6a19      	ldr	r1, [r3, #32]
 8002546:	4211      	tst	r1, r2
 8002548:	bf02      	ittt	eq
 800254a:	681a      	ldreq	r2, [r3, #0]
 800254c:	f022 0201 	biceq.w	r2, r2, #1
 8002550:	601a      	streq	r2, [r3, #0]
 8002552:	2000      	movs	r0, #0
 8002554:	4770      	bx	lr

08002556 <HAL_TIM_PWM_MspInit>:
 8002556:	4770      	bx	lr

08002558 <HAL_TIM_OC_DelayElapsedCallback>:
 8002558:	4770      	bx	lr

0800255a <HAL_TIM_IC_CaptureCallback>:
 800255a:	4770      	bx	lr

0800255c <HAL_TIM_PWM_PulseFinishedCallback>:
 800255c:	4770      	bx	lr

0800255e <HAL_TIM_TriggerCallback>:
 800255e:	4770      	bx	lr

08002560 <HAL_TIM_IRQHandler>:
 8002560:	6803      	ldr	r3, [r0, #0]
 8002562:	b510      	push	{r4, lr}
 8002564:	691a      	ldr	r2, [r3, #16]
 8002566:	4604      	mov	r4, r0
 8002568:	0791      	lsls	r1, r2, #30
 800256a:	d50e      	bpl.n	800258a <HAL_TIM_IRQHandler+0x2a>
 800256c:	68da      	ldr	r2, [r3, #12]
 800256e:	0792      	lsls	r2, r2, #30
 8002570:	d50b      	bpl.n	800258a <HAL_TIM_IRQHandler+0x2a>
 8002572:	f06f 0202 	mvn.w	r2, #2
 8002576:	611a      	str	r2, [r3, #16]
 8002578:	2201      	movs	r2, #1
 800257a:	7702      	strb	r2, [r0, #28]
 800257c:	699b      	ldr	r3, [r3, #24]
 800257e:	079b      	lsls	r3, r3, #30
 8002580:	d077      	beq.n	8002672 <HAL_TIM_IRQHandler+0x112>
 8002582:	f7ff ffea 	bl	800255a <HAL_TIM_IC_CaptureCallback>
 8002586:	2300      	movs	r3, #0
 8002588:	7723      	strb	r3, [r4, #28]
 800258a:	6823      	ldr	r3, [r4, #0]
 800258c:	691a      	ldr	r2, [r3, #16]
 800258e:	0750      	lsls	r0, r2, #29
 8002590:	d510      	bpl.n	80025b4 <HAL_TIM_IRQHandler+0x54>
 8002592:	68da      	ldr	r2, [r3, #12]
 8002594:	0751      	lsls	r1, r2, #29
 8002596:	d50d      	bpl.n	80025b4 <HAL_TIM_IRQHandler+0x54>
 8002598:	f06f 0204 	mvn.w	r2, #4
 800259c:	611a      	str	r2, [r3, #16]
 800259e:	2202      	movs	r2, #2
 80025a0:	7722      	strb	r2, [r4, #28]
 80025a2:	699b      	ldr	r3, [r3, #24]
 80025a4:	4620      	mov	r0, r4
 80025a6:	f413 7f40 	tst.w	r3, #768	; 0x300
 80025aa:	d068      	beq.n	800267e <HAL_TIM_IRQHandler+0x11e>
 80025ac:	f7ff ffd5 	bl	800255a <HAL_TIM_IC_CaptureCallback>
 80025b0:	2300      	movs	r3, #0
 80025b2:	7723      	strb	r3, [r4, #28]
 80025b4:	6823      	ldr	r3, [r4, #0]
 80025b6:	691a      	ldr	r2, [r3, #16]
 80025b8:	0712      	lsls	r2, r2, #28
 80025ba:	d50f      	bpl.n	80025dc <HAL_TIM_IRQHandler+0x7c>
 80025bc:	68da      	ldr	r2, [r3, #12]
 80025be:	0710      	lsls	r0, r2, #28
 80025c0:	d50c      	bpl.n	80025dc <HAL_TIM_IRQHandler+0x7c>
 80025c2:	f06f 0208 	mvn.w	r2, #8
 80025c6:	611a      	str	r2, [r3, #16]
 80025c8:	2204      	movs	r2, #4
 80025ca:	7722      	strb	r2, [r4, #28]
 80025cc:	69db      	ldr	r3, [r3, #28]
 80025ce:	4620      	mov	r0, r4
 80025d0:	0799      	lsls	r1, r3, #30
 80025d2:	d05a      	beq.n	800268a <HAL_TIM_IRQHandler+0x12a>
 80025d4:	f7ff ffc1 	bl	800255a <HAL_TIM_IC_CaptureCallback>
 80025d8:	2300      	movs	r3, #0
 80025da:	7723      	strb	r3, [r4, #28]
 80025dc:	6823      	ldr	r3, [r4, #0]
 80025de:	691a      	ldr	r2, [r3, #16]
 80025e0:	06d2      	lsls	r2, r2, #27
 80025e2:	d510      	bpl.n	8002606 <HAL_TIM_IRQHandler+0xa6>
 80025e4:	68da      	ldr	r2, [r3, #12]
 80025e6:	06d0      	lsls	r0, r2, #27
 80025e8:	d50d      	bpl.n	8002606 <HAL_TIM_IRQHandler+0xa6>
 80025ea:	f06f 0210 	mvn.w	r2, #16
 80025ee:	611a      	str	r2, [r3, #16]
 80025f0:	2208      	movs	r2, #8
 80025f2:	7722      	strb	r2, [r4, #28]
 80025f4:	69db      	ldr	r3, [r3, #28]
 80025f6:	4620      	mov	r0, r4
 80025f8:	f413 7f40 	tst.w	r3, #768	; 0x300
 80025fc:	d04b      	beq.n	8002696 <HAL_TIM_IRQHandler+0x136>
 80025fe:	f7ff ffac 	bl	800255a <HAL_TIM_IC_CaptureCallback>
 8002602:	2300      	movs	r3, #0
 8002604:	7723      	strb	r3, [r4, #28]
 8002606:	6823      	ldr	r3, [r4, #0]
 8002608:	691a      	ldr	r2, [r3, #16]
 800260a:	07d1      	lsls	r1, r2, #31
 800260c:	d508      	bpl.n	8002620 <HAL_TIM_IRQHandler+0xc0>
 800260e:	68da      	ldr	r2, [r3, #12]
 8002610:	07d2      	lsls	r2, r2, #31
 8002612:	d505      	bpl.n	8002620 <HAL_TIM_IRQHandler+0xc0>
 8002614:	f06f 0201 	mvn.w	r2, #1
 8002618:	4620      	mov	r0, r4
 800261a:	611a      	str	r2, [r3, #16]
 800261c:	f7fe fc52 	bl	8000ec4 <HAL_TIM_PeriodElapsedCallback>
 8002620:	6823      	ldr	r3, [r4, #0]
 8002622:	691a      	ldr	r2, [r3, #16]
 8002624:	0610      	lsls	r0, r2, #24
 8002626:	d508      	bpl.n	800263a <HAL_TIM_IRQHandler+0xda>
 8002628:	68da      	ldr	r2, [r3, #12]
 800262a:	0611      	lsls	r1, r2, #24
 800262c:	d505      	bpl.n	800263a <HAL_TIM_IRQHandler+0xda>
 800262e:	f06f 0280 	mvn.w	r2, #128	; 0x80
 8002632:	4620      	mov	r0, r4
 8002634:	611a      	str	r2, [r3, #16]
 8002636:	f000 fa6a 	bl	8002b0e <HAL_TIMEx_BreakCallback>
 800263a:	6823      	ldr	r3, [r4, #0]
 800263c:	691a      	ldr	r2, [r3, #16]
 800263e:	0652      	lsls	r2, r2, #25
 8002640:	d508      	bpl.n	8002654 <HAL_TIM_IRQHandler+0xf4>
 8002642:	68da      	ldr	r2, [r3, #12]
 8002644:	0650      	lsls	r0, r2, #25
 8002646:	d505      	bpl.n	8002654 <HAL_TIM_IRQHandler+0xf4>
 8002648:	f06f 0240 	mvn.w	r2, #64	; 0x40
 800264c:	4620      	mov	r0, r4
 800264e:	611a      	str	r2, [r3, #16]
 8002650:	f7ff ff85 	bl	800255e <HAL_TIM_TriggerCallback>
 8002654:	6823      	ldr	r3, [r4, #0]
 8002656:	691a      	ldr	r2, [r3, #16]
 8002658:	0691      	lsls	r1, r2, #26
 800265a:	d522      	bpl.n	80026a2 <HAL_TIM_IRQHandler+0x142>
 800265c:	68da      	ldr	r2, [r3, #12]
 800265e:	0692      	lsls	r2, r2, #26
 8002660:	d51f      	bpl.n	80026a2 <HAL_TIM_IRQHandler+0x142>
 8002662:	f06f 0220 	mvn.w	r2, #32
 8002666:	4620      	mov	r0, r4
 8002668:	e8bd 4010 	ldmia.w	sp!, {r4, lr}
 800266c:	611a      	str	r2, [r3, #16]
 800266e:	f000 ba4d 	b.w	8002b0c <HAL_TIMEx_CommutCallback>
 8002672:	f7ff ff71 	bl	8002558 <HAL_TIM_OC_DelayElapsedCallback>
 8002676:	4620      	mov	r0, r4
 8002678:	f7ff ff70 	bl	800255c <HAL_TIM_PWM_PulseFinishedCallback>
 800267c:	e783      	b.n	8002586 <HAL_TIM_IRQHandler+0x26>
 800267e:	f7ff ff6b 	bl	8002558 <HAL_TIM_OC_DelayElapsedCallback>
 8002682:	4620      	mov	r0, r4
 8002684:	f7ff ff6a 	bl	800255c <HAL_TIM_PWM_PulseFinishedCallback>
 8002688:	e792      	b.n	80025b0 <HAL_TIM_IRQHandler+0x50>
 800268a:	f7ff ff65 	bl	8002558 <HAL_TIM_OC_DelayElapsedCallback>
 800268e:	4620      	mov	r0, r4
 8002690:	f7ff ff64 	bl	800255c <HAL_TIM_PWM_PulseFinishedCallback>
 8002694:	e7a0      	b.n	80025d8 <HAL_TIM_IRQHandler+0x78>
 8002696:	f7ff ff5f 	bl	8002558 <HAL_TIM_OC_DelayElapsedCallback>
 800269a:	4620      	mov	r0, r4
 800269c:	f7ff ff5e 	bl	800255c <HAL_TIM_PWM_PulseFinishedCallback>
 80026a0:	e7af      	b.n	8002602 <HAL_TIM_IRQHandler+0xa2>
 80026a2:	bd10      	pop	{r4, pc}

080026a4 <TIM_Base_SetConfig>:
 80026a4:	4a1a      	ldr	r2, [pc, #104]	; (8002710 <TIM_Base_SetConfig+0x6c>)
 80026a6:	6803      	ldr	r3, [r0, #0]
 80026a8:	4290      	cmp	r0, r2
 80026aa:	d00a      	beq.n	80026c2 <TIM_Base_SetConfig+0x1e>
 80026ac:	f1b0 4f80 	cmp.w	r0, #1073741824	; 0x40000000
 80026b0:	d007      	beq.n	80026c2 <TIM_Base_SetConfig+0x1e>
 80026b2:	f5a2 3294 	sub.w	r2, r2, #75776	; 0x12800
 80026b6:	4290      	cmp	r0, r2
 80026b8:	d003      	beq.n	80026c2 <TIM_Base_SetConfig+0x1e>
 80026ba:	f502 6280 	add.w	r2, r2, #1024	; 0x400
 80026be:	4290      	cmp	r0, r2
 80026c0:	d115      	bne.n	80026ee <TIM_Base_SetConfig+0x4a>
 80026c2:	684a      	ldr	r2, [r1, #4]
 80026c4:	f023 0370 	bic.w	r3, r3, #112	; 0x70
 80026c8:	4313      	orrs	r3, r2
 80026ca:	4a11      	ldr	r2, [pc, #68]	; (8002710 <TIM_Base_SetConfig+0x6c>)
 80026cc:	4290      	cmp	r0, r2
 80026ce:	d00a      	beq.n	80026e6 <TIM_Base_SetConfig+0x42>
 80026d0:	f1b0 4f80 	cmp.w	r0, #1073741824	; 0x40000000
 80026d4:	d007      	beq.n	80026e6 <TIM_Base_SetConfig+0x42>
 80026d6:	f5a2 3294 	sub.w	r2, r2, #75776	; 0x12800
 80026da:	4290      	cmp	r0, r2
 80026dc:	d003      	beq.n	80026e6 <TIM_Base_SetConfig+0x42>
 80026de:	f502 6280 	add.w	r2, r2, #1024	; 0x400
 80026e2:	4290      	cmp	r0, r2
 80026e4:	d103      	bne.n	80026ee <TIM_Base_SetConfig+0x4a>
 80026e6:	68ca      	ldr	r2, [r1, #12]
 80026e8:	f423 7340 	bic.w	r3, r3, #768	; 0x300
 80026ec:	4313      	orrs	r3, r2
 80026ee:	694a      	ldr	r2, [r1, #20]
 80026f0:	f023 0380 	bic.w	r3, r3, #128	; 0x80
 80026f4:	4313      	orrs	r3, r2
 80026f6:	6003      	str	r3, [r0, #0]
 80026f8:	688b      	ldr	r3, [r1, #8]
 80026fa:	62c3      	str	r3, [r0, #44]	; 0x2c
 80026fc:	680b      	ldr	r3, [r1, #0]
 80026fe:	6283      	str	r3, [r0, #40]	; 0x28
 8002700:	4b03      	ldr	r3, [pc, #12]	; (8002710 <TIM_Base_SetConfig+0x6c>)
 8002702:	4298      	cmp	r0, r3
 8002704:	bf04      	itt	eq
 8002706:	690b      	ldreq	r3, [r1, #16]
 8002708:	6303      	streq	r3, [r0, #48]	; 0x30
 800270a:	2301      	movs	r3, #1
 800270c:	6143      	str	r3, [r0, #20]
 800270e:	4770      	bx	lr
 8002710:	40012c00 	.word	0x40012c00

08002714 <HAL_TIM_Base_Init>:
 8002714:	b510      	push	{r4, lr}
 8002716:	4604      	mov	r4, r0
 8002718:	b1a0      	cbz	r0, 8002744 <HAL_TIM_Base_Init+0x30>
 800271a:	f890 303d 	ldrb.w	r3, [r0, #61]	; 0x3d
 800271e:	f003 02ff 	and.w	r2, r3, #255	; 0xff
 8002722:	b91b      	cbnz	r3, 800272c <HAL_TIM_Base_Init+0x18>
 8002724:	f880 203c 	strb.w	r2, [r0, #60]	; 0x3c
 8002728:	f7fe fb4c 	bl	8000dc4 <HAL_TIM_Base_MspInit>
 800272c:	2302      	movs	r3, #2
 800272e:	6820      	ldr	r0, [r4, #0]
 8002730:	f884 303d 	strb.w	r3, [r4, #61]	; 0x3d
 8002734:	1d21      	adds	r1, r4, #4
 8002736:	f7ff ffb5 	bl	80026a4 <TIM_Base_SetConfig>
 800273a:	2301      	movs	r3, #1
 800273c:	2000      	movs	r0, #0
 800273e:	f884 303d 	strb.w	r3, [r4, #61]	; 0x3d
 8002742:	bd10      	pop	{r4, pc}
 8002744:	2001      	movs	r0, #1
 8002746:	e7fc      	b.n	8002742 <HAL_TIM_Base_Init+0x2e>

08002748 <HAL_TIM_PWM_Init>:
 8002748:	b510      	push	{r4, lr}
 800274a:	4604      	mov	r4, r0
 800274c:	b1a0      	cbz	r0, 8002778 <HAL_TIM_PWM_Init+0x30>
 800274e:	f890 303d 	ldrb.w	r3, [r0, #61]	; 0x3d
 8002752:	f003 02ff 	and.w	r2, r3, #255	; 0xff
 8002756:	b91b      	cbnz	r3, 8002760 <HAL_TIM_PWM_Init+0x18>
 8002758:	f880 203c 	strb.w	r2, [r0, #60]	; 0x3c
 800275c:	f7ff fefb 	bl	8002556 <HAL_TIM_PWM_MspInit>
 8002760:	2302      	movs	r3, #2
 8002762:	6820      	ldr	r0, [r4, #0]
 8002764:	f884 303d 	strb.w	r3, [r4, #61]	; 0x3d
 8002768:	1d21      	adds	r1, r4, #4
 800276a:	f7ff ff9b 	bl	80026a4 <TIM_Base_SetConfig>
 800276e:	2301      	movs	r3, #1
 8002770:	2000      	movs	r0, #0
 8002772:	f884 303d 	strb.w	r3, [r4, #61]	; 0x3d
 8002776:	bd10      	pop	{r4, pc}
 8002778:	2001      	movs	r0, #1
 800277a:	e7fc      	b.n	8002776 <HAL_TIM_PWM_Init+0x2e>

0800277c <TIM_OC2_SetConfig>:
 800277c:	6a03      	ldr	r3, [r0, #32]
 800277e:	b570      	push	{r4, r5, r6, lr}
 8002780:	f023 0310 	bic.w	r3, r3, #16
 8002784:	6203      	str	r3, [r0, #32]
 8002786:	6a03      	ldr	r3, [r0, #32]
 8002788:	6844      	ldr	r4, [r0, #4]
 800278a:	6982      	ldr	r2, [r0, #24]
 800278c:	680d      	ldr	r5, [r1, #0]
 800278e:	f422 42e6 	bic.w	r2, r2, #29440	; 0x7300
 8002792:	ea42 2205 	orr.w	r2, r2, r5, lsl #8
 8002796:	688d      	ldr	r5, [r1, #8]
 8002798:	f023 0320 	bic.w	r3, r3, #32
 800279c:	ea43 1305 	orr.w	r3, r3, r5, lsl #4
 80027a0:	4d0b      	ldr	r5, [pc, #44]	; (80027d0 <TIM_OC2_SetConfig+0x54>)
 80027a2:	42a8      	cmp	r0, r5
 80027a4:	d10d      	bne.n	80027c2 <TIM_OC2_SetConfig+0x46>
 80027a6:	68cd      	ldr	r5, [r1, #12]
 80027a8:	f023 0380 	bic.w	r3, r3, #128	; 0x80
 80027ac:	ea43 1305 	orr.w	r3, r3, r5, lsl #4
 80027b0:	f424 6440 	bic.w	r4, r4, #3072	; 0xc00
 80027b4:	e9d1 5605 	ldrd	r5, r6, [r1, #20]
 80027b8:	4335      	orrs	r5, r6
 80027ba:	f023 0340 	bic.w	r3, r3, #64	; 0x40
 80027be:	ea44 0485 	orr.w	r4, r4, r5, lsl #2
 80027c2:	6044      	str	r4, [r0, #4]
 80027c4:	6182      	str	r2, [r0, #24]
 80027c6:	684a      	ldr	r2, [r1, #4]
 80027c8:	6382      	str	r2, [r0, #56]	; 0x38
 80027ca:	6203      	str	r3, [r0, #32]
 80027cc:	bd70      	pop	{r4, r5, r6, pc}
 80027ce:	bf00      	nop
 80027d0:	40012c00 	.word	0x40012c00

080027d4 <HAL_TIM_PWM_ConfigChannel>:
 80027d4:	b538      	push	{r3, r4, r5, lr}
 80027d6:	f890 303c 	ldrb.w	r3, [r0, #60]	; 0x3c
 80027da:	4604      	mov	r4, r0
 80027dc:	2b01      	cmp	r3, #1
 80027de:	f04f 0002 	mov.w	r0, #2
 80027e2:	d010      	beq.n	8002806 <HAL_TIM_PWM_ConfigChannel+0x32>
 80027e4:	2301      	movs	r3, #1
 80027e6:	2a08      	cmp	r2, #8
 80027e8:	f884 303c 	strb.w	r3, [r4, #60]	; 0x3c
 80027ec:	f884 003d 	strb.w	r0, [r4, #61]	; 0x3d
 80027f0:	d03c      	beq.n	800286c <HAL_TIM_PWM_ConfigChannel+0x98>
 80027f2:	d809      	bhi.n	8002808 <HAL_TIM_PWM_ConfigChannel+0x34>
 80027f4:	b1d2      	cbz	r2, 800282c <HAL_TIM_PWM_ConfigChannel+0x58>
 80027f6:	2a04      	cmp	r2, #4
 80027f8:	d028      	beq.n	800284c <HAL_TIM_PWM_ConfigChannel+0x78>
 80027fa:	2301      	movs	r3, #1
 80027fc:	2000      	movs	r0, #0
 80027fe:	f884 303d 	strb.w	r3, [r4, #61]	; 0x3d
 8002802:	f884 003c 	strb.w	r0, [r4, #60]	; 0x3c
 8002806:	bd38      	pop	{r3, r4, r5, pc}
 8002808:	2a0c      	cmp	r2, #12
 800280a:	d1f6      	bne.n	80027fa <HAL_TIM_PWM_ConfigChannel+0x26>
 800280c:	6820      	ldr	r0, [r4, #0]
 800280e:	f7ff fe5b 	bl	80024c8 <TIM_OC4_SetConfig>
 8002812:	69c3      	ldr	r3, [r0, #28]
 8002814:	690a      	ldr	r2, [r1, #16]
 8002816:	f443 6300 	orr.w	r3, r3, #2048	; 0x800
 800281a:	61c3      	str	r3, [r0, #28]
 800281c:	69c3      	ldr	r3, [r0, #28]
 800281e:	f423 6380 	bic.w	r3, r3, #1024	; 0x400
 8002822:	61c3      	str	r3, [r0, #28]
 8002824:	69c3      	ldr	r3, [r0, #28]
 8002826:	ea43 2302 	orr.w	r3, r3, r2, lsl #8
 800282a:	e02d      	b.n	8002888 <HAL_TIM_PWM_ConfigChannel+0xb4>
 800282c:	6820      	ldr	r0, [r4, #0]
 800282e:	f7ff fdf9 	bl	8002424 <TIM_OC1_SetConfig>
 8002832:	6983      	ldr	r3, [r0, #24]
 8002834:	690a      	ldr	r2, [r1, #16]
 8002836:	f043 0308 	orr.w	r3, r3, #8
 800283a:	6183      	str	r3, [r0, #24]
 800283c:	6983      	ldr	r3, [r0, #24]
 800283e:	f023 0304 	bic.w	r3, r3, #4
 8002842:	6183      	str	r3, [r0, #24]
 8002844:	6983      	ldr	r3, [r0, #24]
 8002846:	4313      	orrs	r3, r2
 8002848:	6183      	str	r3, [r0, #24]
 800284a:	e7d6      	b.n	80027fa <HAL_TIM_PWM_ConfigChannel+0x26>
 800284c:	6820      	ldr	r0, [r4, #0]
 800284e:	f7ff ff95 	bl	800277c <TIM_OC2_SetConfig>
 8002852:	6983      	ldr	r3, [r0, #24]
 8002854:	690a      	ldr	r2, [r1, #16]
 8002856:	f443 6300 	orr.w	r3, r3, #2048	; 0x800
 800285a:	6183      	str	r3, [r0, #24]
 800285c:	6983      	ldr	r3, [r0, #24]
 800285e:	f423 6380 	bic.w	r3, r3, #1024	; 0x400
 8002862:	6183      	str	r3, [r0, #24]
 8002864:	6983      	ldr	r3, [r0, #24]
 8002866:	ea43 2302 	orr.w	r3, r3, r2, lsl #8
 800286a:	e7ed      	b.n	8002848 <HAL_TIM_PWM_ConfigChannel+0x74>
 800286c:	6820      	ldr	r0, [r4, #0]
 800286e:	f7ff fe01 	bl	8002474 <TIM_OC3_SetConfig>
 8002872:	69c3      	ldr	r3, [r0, #28]
 8002874:	690a      	ldr	r2, [r1, #16]
 8002876:	f043 0308 	orr.w	r3, r3, #8
 800287a:	61c3      	str	r3, [r0, #28]
 800287c:	69c3      	ldr	r3, [r0, #28]
 800287e:	f023 0304 	bic.w	r3, r3, #4
 8002882:	61c3      	str	r3, [r0, #28]
 8002884:	69c3      	ldr	r3, [r0, #28]
 8002886:	4313      	orrs	r3, r2
 8002888:	61c3      	str	r3, [r0, #28]
 800288a:	e7b6      	b.n	80027fa <HAL_TIM_PWM_ConfigChannel+0x26>

0800288c <TIM_ETR_SetConfig>:
 800288c:	b510      	push	{r4, lr}
 800288e:	6884      	ldr	r4, [r0, #8]
 8002890:	430a      	orrs	r2, r1
 8002892:	f424 447f 	bic.w	r4, r4, #65280	; 0xff00
 8002896:	ea42 2203 	orr.w	r2, r2, r3, lsl #8
 800289a:	4322      	orrs	r2, r4
 800289c:	6082      	str	r2, [r0, #8]
 800289e:	bd10      	pop	{r4, pc}

080028a0 <HAL_TIM_ConfigClockSource>:
 80028a0:	b538      	push	{r3, r4, r5, lr}
 80028a2:	f890 303c 	ldrb.w	r3, [r0, #60]	; 0x3c
 80028a6:	4604      	mov	r4, r0
 80028a8:	2b01      	cmp	r3, #1
 80028aa:	f04f 0002 	mov.w	r0, #2
 80028ae:	d027      	beq.n	8002900 <HAL_TIM_ConfigClockSource+0x60>
 80028b0:	2301      	movs	r3, #1
 80028b2:	f884 003d 	strb.w	r0, [r4, #61]	; 0x3d
 80028b6:	6820      	ldr	r0, [r4, #0]
 80028b8:	f884 303c 	strb.w	r3, [r4, #60]	; 0x3c
 80028bc:	6883      	ldr	r3, [r0, #8]
 80028be:	f423 437f 	bic.w	r3, r3, #65280	; 0xff00
 80028c2:	f023 0377 	bic.w	r3, r3, #119	; 0x77
 80028c6:	6083      	str	r3, [r0, #8]
 80028c8:	680b      	ldr	r3, [r1, #0]
 80028ca:	2b60      	cmp	r3, #96	; 0x60
 80028cc:	d04a      	beq.n	8002964 <HAL_TIM_ConfigClockSource+0xc4>
 80028ce:	d831      	bhi.n	8002934 <HAL_TIM_ConfigClockSource+0x94>
 80028d0:	2b40      	cmp	r3, #64	; 0x40
 80028d2:	d05f      	beq.n	8002994 <HAL_TIM_ConfigClockSource+0xf4>
 80028d4:	d815      	bhi.n	8002902 <HAL_TIM_ConfigClockSource+0x62>
 80028d6:	2b20      	cmp	r3, #32
 80028d8:	d003      	beq.n	80028e2 <HAL_TIM_ConfigClockSource+0x42>
 80028da:	d809      	bhi.n	80028f0 <HAL_TIM_ConfigClockSource+0x50>
 80028dc:	f033 0210 	bics.w	r2, r3, #16
 80028e0:	d108      	bne.n	80028f4 <HAL_TIM_ConfigClockSource+0x54>
 80028e2:	6882      	ldr	r2, [r0, #8]
 80028e4:	f022 0270 	bic.w	r2, r2, #112	; 0x70
 80028e8:	4313      	orrs	r3, r2
 80028ea:	f043 0307 	orr.w	r3, r3, #7
 80028ee:	e037      	b.n	8002960 <HAL_TIM_ConfigClockSource+0xc0>
 80028f0:	2b30      	cmp	r3, #48	; 0x30
 80028f2:	d0f6      	beq.n	80028e2 <HAL_TIM_ConfigClockSource+0x42>
 80028f4:	2301      	movs	r3, #1
 80028f6:	2000      	movs	r0, #0
 80028f8:	f884 303d 	strb.w	r3, [r4, #61]	; 0x3d
 80028fc:	f884 003c 	strb.w	r0, [r4, #60]	; 0x3c
 8002900:	bd38      	pop	{r3, r4, r5, pc}
 8002902:	2b50      	cmp	r3, #80	; 0x50
 8002904:	d1f6      	bne.n	80028f4 <HAL_TIM_ConfigClockSource+0x54>
 8002906:	684a      	ldr	r2, [r1, #4]
 8002908:	68cd      	ldr	r5, [r1, #12]
 800290a:	6a01      	ldr	r1, [r0, #32]
 800290c:	6a03      	ldr	r3, [r0, #32]
 800290e:	f021 010a 	bic.w	r1, r1, #10
 8002912:	f023 0301 	bic.w	r3, r3, #1
 8002916:	6203      	str	r3, [r0, #32]
 8002918:	6983      	ldr	r3, [r0, #24]
 800291a:	430a      	orrs	r2, r1
 800291c:	f023 03f0 	bic.w	r3, r3, #240	; 0xf0
 8002920:	ea43 1305 	orr.w	r3, r3, r5, lsl #4
 8002924:	6183      	str	r3, [r0, #24]
 8002926:	6202      	str	r2, [r0, #32]
 8002928:	6883      	ldr	r3, [r0, #8]
 800292a:	f023 0370 	bic.w	r3, r3, #112	; 0x70
 800292e:	f043 0357 	orr.w	r3, r3, #87	; 0x57
 8002932:	e015      	b.n	8002960 <HAL_TIM_ConfigClockSource+0xc0>
 8002934:	2b70      	cmp	r3, #112	; 0x70
 8002936:	d00b      	beq.n	8002950 <HAL_TIM_ConfigClockSource+0xb0>
 8002938:	f5b3 5f00 	cmp.w	r3, #8192	; 0x2000
 800293c:	d1da      	bne.n	80028f4 <HAL_TIM_ConfigClockSource+0x54>
 800293e:	68cb      	ldr	r3, [r1, #12]
 8002940:	e9d1 2101 	ldrd	r2, r1, [r1, #4]
 8002944:	f7ff ffa2 	bl	800288c <TIM_ETR_SetConfig>
 8002948:	6883      	ldr	r3, [r0, #8]
 800294a:	f443 4380 	orr.w	r3, r3, #16384	; 0x4000
 800294e:	e007      	b.n	8002960 <HAL_TIM_ConfigClockSource+0xc0>
 8002950:	68cb      	ldr	r3, [r1, #12]
 8002952:	e9d1 2101 	ldrd	r2, r1, [r1, #4]
 8002956:	f7ff ff99 	bl	800288c <TIM_ETR_SetConfig>
 800295a:	6883      	ldr	r3, [r0, #8]
 800295c:	f043 0377 	orr.w	r3, r3, #119	; 0x77
 8002960:	6083      	str	r3, [r0, #8]
 8002962:	e7c7      	b.n	80028f4 <HAL_TIM_ConfigClockSource+0x54>
 8002964:	6a03      	ldr	r3, [r0, #32]
 8002966:	684d      	ldr	r5, [r1, #4]
 8002968:	f023 0310 	bic.w	r3, r3, #16
 800296c:	68c9      	ldr	r1, [r1, #12]
 800296e:	6203      	str	r3, [r0, #32]
 8002970:	6982      	ldr	r2, [r0, #24]
 8002972:	6a03      	ldr	r3, [r0, #32]
 8002974:	f422 4270 	bic.w	r2, r2, #61440	; 0xf000
 8002978:	f023 03a0 	bic.w	r3, r3, #160	; 0xa0
 800297c:	ea43 1305 	orr.w	r3, r3, r5, lsl #4
 8002980:	ea42 3201 	orr.w	r2, r2, r1, lsl #12
 8002984:	6182      	str	r2, [r0, #24]
 8002986:	6203      	str	r3, [r0, #32]
 8002988:	6883      	ldr	r3, [r0, #8]
 800298a:	f023 0370 	bic.w	r3, r3, #112	; 0x70
 800298e:	f043 0367 	orr.w	r3, r3, #103	; 0x67
 8002992:	e7e5      	b.n	8002960 <HAL_TIM_ConfigClockSource+0xc0>
 8002994:	684a      	ldr	r2, [r1, #4]
 8002996:	68cd      	ldr	r5, [r1, #12]
 8002998:	6a01      	ldr	r1, [r0, #32]
 800299a:	6a03      	ldr	r3, [r0, #32]
 800299c:	f021 010a 	bic.w	r1, r1, #10
 80029a0:	f023 0301 	bic.w	r3, r3, #1
 80029a4:	6203      	str	r3, [r0, #32]
 80029a6:	6983      	ldr	r3, [r0, #24]
 80029a8:	430a      	orrs	r2, r1
 80029aa:	f023 03f0 	bic.w	r3, r3, #240	; 0xf0
 80029ae:	ea43 1305 	orr.w	r3, r3, r5, lsl #4
 80029b2:	6183      	str	r3, [r0, #24]
 80029b4:	6202      	str	r2, [r0, #32]
 80029b6:	6883      	ldr	r3, [r0, #8]
 80029b8:	f023 0370 	bic.w	r3, r3, #112	; 0x70
 80029bc:	f043 0347 	orr.w	r3, r3, #71	; 0x47
 80029c0:	e7ce      	b.n	8002960 <HAL_TIM_ConfigClockSource+0xc0>

080029c2 <TIM_CCxChannelCmd>:
 80029c2:	b510      	push	{r4, lr}
 80029c4:	2401      	movs	r4, #1
 80029c6:	6a03      	ldr	r3, [r0, #32]
 80029c8:	f001 011f 	and.w	r1, r1, #31
 80029cc:	408c      	lsls	r4, r1
 80029ce:	ea23 0304 	bic.w	r3, r3, r4
 80029d2:	6203      	str	r3, [r0, #32]
 80029d4:	6a03      	ldr	r3, [r0, #32]
 80029d6:	408a      	lsls	r2, r1
 80029d8:	431a      	orrs	r2, r3
 80029da:	6202      	str	r2, [r0, #32]
 80029dc:	bd10      	pop	{r4, pc}
	...

080029e0 <HAL_TIM_OC_Start_IT>:
 80029e0:	2908      	cmp	r1, #8
 80029e2:	b508      	push	{r3, lr}
 80029e4:	6800      	ldr	r0, [r0, #0]
 80029e6:	d027      	beq.n	8002a38 <HAL_TIM_OC_Start_IT+0x58>
 80029e8:	d817      	bhi.n	8002a1a <HAL_TIM_OC_Start_IT+0x3a>
 80029ea:	b1e1      	cbz	r1, 8002a26 <HAL_TIM_OC_Start_IT+0x46>
 80029ec:	2904      	cmp	r1, #4
 80029ee:	d01f      	beq.n	8002a30 <HAL_TIM_OC_Start_IT+0x50>
 80029f0:	2201      	movs	r2, #1
 80029f2:	f7ff ffe6 	bl	80029c2 <TIM_CCxChannelCmd>
 80029f6:	4b12      	ldr	r3, [pc, #72]	; (8002a40 <HAL_TIM_OC_Start_IT+0x60>)
 80029f8:	4298      	cmp	r0, r3
 80029fa:	bf02      	ittt	eq
 80029fc:	6c43      	ldreq	r3, [r0, #68]	; 0x44
 80029fe:	f443 4300 	orreq.w	r3, r3, #32768	; 0x8000
 8002a02:	6443      	streq	r3, [r0, #68]	; 0x44
 8002a04:	6883      	ldr	r3, [r0, #8]
 8002a06:	f003 0307 	and.w	r3, r3, #7
 8002a0a:	2b06      	cmp	r3, #6
 8002a0c:	bf1e      	ittt	ne
 8002a0e:	6803      	ldrne	r3, [r0, #0]
 8002a10:	f043 0301 	orrne.w	r3, r3, #1
 8002a14:	6003      	strne	r3, [r0, #0]
 8002a16:	2000      	movs	r0, #0
 8002a18:	bd08      	pop	{r3, pc}
 8002a1a:	290c      	cmp	r1, #12
 8002a1c:	d1e8      	bne.n	80029f0 <HAL_TIM_OC_Start_IT+0x10>
 8002a1e:	68c3      	ldr	r3, [r0, #12]
 8002a20:	f043 0310 	orr.w	r3, r3, #16
 8002a24:	e002      	b.n	8002a2c <HAL_TIM_OC_Start_IT+0x4c>
 8002a26:	68c3      	ldr	r3, [r0, #12]
 8002a28:	f043 0302 	orr.w	r3, r3, #2
 8002a2c:	60c3      	str	r3, [r0, #12]
 8002a2e:	e7df      	b.n	80029f0 <HAL_TIM_OC_Start_IT+0x10>
 8002a30:	68c3      	ldr	r3, [r0, #12]
 8002a32:	f043 0304 	orr.w	r3, r3, #4
 8002a36:	e7f9      	b.n	8002a2c <HAL_TIM_OC_Start_IT+0x4c>
 8002a38:	68c3      	ldr	r3, [r0, #12]
 8002a3a:	f043 0308 	orr.w	r3, r3, #8
 8002a3e:	e7f5      	b.n	8002a2c <HAL_TIM_OC_Start_IT+0x4c>
 8002a40:	40012c00 	.word	0x40012c00

08002a44 <HAL_TIM_PWM_Start_IT>:
 8002a44:	f7ff bfcc 	b.w	80029e0 <HAL_TIM_OC_Start_IT>

08002a48 <HAL_TIM_OC_Stop_IT>:
 8002a48:	2908      	cmp	r1, #8
 8002a4a:	b508      	push	{r3, lr}
 8002a4c:	6800      	ldr	r0, [r0, #0]
 8002a4e:	d036      	beq.n	8002abe <HAL_TIM_OC_Stop_IT+0x76>
 8002a50:	d826      	bhi.n	8002aa0 <HAL_TIM_OC_Stop_IT+0x58>
 8002a52:	b359      	cbz	r1, 8002aac <HAL_TIM_OC_Stop_IT+0x64>
 8002a54:	2904      	cmp	r1, #4
 8002a56:	d02e      	beq.n	8002ab6 <HAL_TIM_OC_Stop_IT+0x6e>
 8002a58:	2200      	movs	r2, #0
 8002a5a:	f7ff ffb2 	bl	80029c2 <TIM_CCxChannelCmd>
 8002a5e:	4b1a      	ldr	r3, [pc, #104]	; (8002ac8 <HAL_TIM_OC_Stop_IT+0x80>)
 8002a60:	4298      	cmp	r0, r3
 8002a62:	d10d      	bne.n	8002a80 <HAL_TIM_OC_Stop_IT+0x38>
 8002a64:	f241 1311 	movw	r3, #4369	; 0x1111
 8002a68:	6a02      	ldr	r2, [r0, #32]
 8002a6a:	421a      	tst	r2, r3
 8002a6c:	d108      	bne.n	8002a80 <HAL_TIM_OC_Stop_IT+0x38>
 8002a6e:	f240 4344 	movw	r3, #1092	; 0x444
 8002a72:	6a02      	ldr	r2, [r0, #32]
 8002a74:	421a      	tst	r2, r3
 8002a76:	bf02      	ittt	eq
 8002a78:	6c43      	ldreq	r3, [r0, #68]	; 0x44
 8002a7a:	f423 4300 	biceq.w	r3, r3, #32768	; 0x8000
 8002a7e:	6443      	streq	r3, [r0, #68]	; 0x44
 8002a80:	f241 1311 	movw	r3, #4369	; 0x1111
 8002a84:	6a02      	ldr	r2, [r0, #32]
 8002a86:	421a      	tst	r2, r3
 8002a88:	d108      	bne.n	8002a9c <HAL_TIM_OC_Stop_IT+0x54>
 8002a8a:	f240 4344 	movw	r3, #1092	; 0x444
 8002a8e:	6a02      	ldr	r2, [r0, #32]
 8002a90:	421a      	tst	r2, r3
 8002a92:	bf02      	ittt	eq
 8002a94:	6803      	ldreq	r3, [r0, #0]
 8002a96:	f023 0301 	biceq.w	r3, r3, #1
 8002a9a:	6003      	streq	r3, [r0, #0]
 8002a9c:	2000      	movs	r0, #0
 8002a9e:	bd08      	pop	{r3, pc}
 8002aa0:	290c      	cmp	r1, #12
 8002aa2:	d1d9      	bne.n	8002a58 <HAL_TIM_OC_Stop_IT+0x10>
 8002aa4:	68c3      	ldr	r3, [r0, #12]
 8002aa6:	f023 0310 	bic.w	r3, r3, #16
 8002aaa:	e002      	b.n	8002ab2 <HAL_TIM_OC_Stop_IT+0x6a>
 8002aac:	68c3      	ldr	r3, [r0, #12]
 8002aae:	f023 0302 	bic.w	r3, r3, #2
 8002ab2:	60c3      	str	r3, [r0, #12]
 8002ab4:	e7d0      	b.n	8002a58 <HAL_TIM_OC_Stop_IT+0x10>
 8002ab6:	68c3      	ldr	r3, [r0, #12]
 8002ab8:	f023 0304 	bic.w	r3, r3, #4
 8002abc:	e7f9      	b.n	8002ab2 <HAL_TIM_OC_Stop_IT+0x6a>
 8002abe:	68c3      	ldr	r3, [r0, #12]
 8002ac0:	f023 0308 	bic.w	r3, r3, #8
 8002ac4:	e7f5      	b.n	8002ab2 <HAL_TIM_OC_Stop_IT+0x6a>
 8002ac6:	bf00      	nop
 8002ac8:	40012c00 	.word	0x40012c00

08002acc <HAL_TIM_PWM_Stop_IT>:
 8002acc:	f7ff bfbc 	b.w	8002a48 <HAL_TIM_OC_Stop_IT>

08002ad0 <HAL_TIMEx_MasterConfigSynchronization>:
 8002ad0:	b530      	push	{r4, r5, lr}
 8002ad2:	f890 203c 	ldrb.w	r2, [r0, #60]	; 0x3c
 8002ad6:	4603      	mov	r3, r0
 8002ad8:	2a01      	cmp	r2, #1
 8002ada:	f04f 0002 	mov.w	r0, #2
 8002ade:	d014      	beq.n	8002b0a <HAL_TIMEx_MasterConfigSynchronization+0x3a>
 8002ae0:	681c      	ldr	r4, [r3, #0]
 8002ae2:	f883 003d 	strb.w	r0, [r3, #61]	; 0x3d
 8002ae6:	6860      	ldr	r0, [r4, #4]
 8002ae8:	68a2      	ldr	r2, [r4, #8]
 8002aea:	680d      	ldr	r5, [r1, #0]
 8002aec:	6849      	ldr	r1, [r1, #4]
 8002aee:	f020 0070 	bic.w	r0, r0, #112	; 0x70
 8002af2:	f022 0280 	bic.w	r2, r2, #128	; 0x80
 8002af6:	4328      	orrs	r0, r5
 8002af8:	430a      	orrs	r2, r1
 8002afa:	6060      	str	r0, [r4, #4]
 8002afc:	60a2      	str	r2, [r4, #8]
 8002afe:	2000      	movs	r0, #0
 8002b00:	2201      	movs	r2, #1
 8002b02:	f883 003c 	strb.w	r0, [r3, #60]	; 0x3c
 8002b06:	f883 203d 	strb.w	r2, [r3, #61]	; 0x3d
 8002b0a:	bd30      	pop	{r4, r5, pc}

08002b0c <HAL_TIMEx_CommutCallback>:
 8002b0c:	4770      	bx	lr

08002b0e <HAL_TIMEx_BreakCallback>:
 8002b0e:	4770      	bx	lr

08002b10 <sniprintf>:
 8002b10:	b40c      	push	{r2, r3}
 8002b12:	b530      	push	{r4, r5, lr}
 8002b14:	4b17      	ldr	r3, [pc, #92]	; (8002b74 <sniprintf+0x64>)
 8002b16:	1e0c      	subs	r4, r1, #0
 8002b18:	681d      	ldr	r5, [r3, #0]
 8002b1a:	b09d      	sub	sp, #116	; 0x74
 8002b1c:	da08      	bge.n	8002b30 <sniprintf+0x20>
 8002b1e:	238b      	movs	r3, #139	; 0x8b
 8002b20:	f04f 30ff 	mov.w	r0, #4294967295
 8002b24:	602b      	str	r3, [r5, #0]
 8002b26:	b01d      	add	sp, #116	; 0x74
 8002b28:	e8bd 4030 	ldmia.w	sp!, {r4, r5, lr}
 8002b2c:	b002      	add	sp, #8
 8002b2e:	4770      	bx	lr
 8002b30:	f44f 7302 	mov.w	r3, #520	; 0x208
 8002b34:	f8ad 3014 	strh.w	r3, [sp, #20]
 8002b38:	bf0c      	ite	eq
 8002b3a:	4623      	moveq	r3, r4
 8002b3c:	f104 33ff 	addne.w	r3, r4, #4294967295
 8002b40:	9304      	str	r3, [sp, #16]
 8002b42:	9307      	str	r3, [sp, #28]
 8002b44:	f64f 73ff 	movw	r3, #65535	; 0xffff
 8002b48:	9002      	str	r0, [sp, #8]
 8002b4a:	9006      	str	r0, [sp, #24]
 8002b4c:	f8ad 3016 	strh.w	r3, [sp, #22]
 8002b50:	4628      	mov	r0, r5
 8002b52:	ab21      	add	r3, sp, #132	; 0x84
 8002b54:	9a20      	ldr	r2, [sp, #128]	; 0x80
 8002b56:	a902      	add	r1, sp, #8
 8002b58:	9301      	str	r3, [sp, #4]
 8002b5a:	f000 f9b7 	bl	8002ecc <_svfiprintf_r>
 8002b5e:	1c43      	adds	r3, r0, #1
 8002b60:	bfbc      	itt	lt
 8002b62:	238b      	movlt	r3, #139	; 0x8b
 8002b64:	602b      	strlt	r3, [r5, #0]
 8002b66:	2c00      	cmp	r4, #0
 8002b68:	d0dd      	beq.n	8002b26 <sniprintf+0x16>
 8002b6a:	2200      	movs	r2, #0
 8002b6c:	9b02      	ldr	r3, [sp, #8]
 8002b6e:	701a      	strb	r2, [r3, #0]
 8002b70:	e7d9      	b.n	8002b26 <sniprintf+0x16>
 8002b72:	bf00      	nop
 8002b74:	20000080 	.word	0x20000080

08002b78 <siprintf>:
 8002b78:	b40e      	push	{r1, r2, r3}
 8002b7a:	f06f 4100 	mvn.w	r1, #2147483648	; 0x80000000
 8002b7e:	b500      	push	{lr}
 8002b80:	b09c      	sub	sp, #112	; 0x70
 8002b82:	ab1d      	add	r3, sp, #116	; 0x74
 8002b84:	9002      	str	r0, [sp, #8]
 8002b86:	9006      	str	r0, [sp, #24]
 8002b88:	9107      	str	r1, [sp, #28]
 8002b8a:	9104      	str	r1, [sp, #16]
 8002b8c:	4808      	ldr	r0, [pc, #32]	; (8002bb0 <siprintf+0x38>)
 8002b8e:	4909      	ldr	r1, [pc, #36]	; (8002bb4 <siprintf+0x3c>)
 8002b90:	f853 2b04 	ldr.w	r2, [r3], #4
 8002b94:	9105      	str	r1, [sp, #20]
 8002b96:	6800      	ldr	r0, [r0, #0]
 8002b98:	a902      	add	r1, sp, #8
 8002b9a:	9301      	str	r3, [sp, #4]
 8002b9c:	f000 f996 	bl	8002ecc <_svfiprintf_r>
 8002ba0:	2200      	movs	r2, #0
 8002ba2:	9b02      	ldr	r3, [sp, #8]
 8002ba4:	701a      	strb	r2, [r3, #0]
 8002ba6:	b01c      	add	sp, #112	; 0x70
 8002ba8:	f85d eb04 	ldr.w	lr, [sp], #4
 8002bac:	b003      	add	sp, #12
 8002bae:	4770      	bx	lr
 8002bb0:	20000080 	.word	0x20000080
 8002bb4:	ffff0208 	.word	0xffff0208

08002bb8 <memset>:
 8002bb8:	4603      	mov	r3, r0
 8002bba:	4402      	add	r2, r0
 8002bbc:	4293      	cmp	r3, r2
 8002bbe:	d100      	bne.n	8002bc2 <memset+0xa>
 8002bc0:	4770      	bx	lr
 8002bc2:	f803 1b01 	strb.w	r1, [r3], #1
 8002bc6:	e7f9      	b.n	8002bbc <memset+0x4>

08002bc8 <__errno>:
 8002bc8:	4b01      	ldr	r3, [pc, #4]	; (8002bd0 <__errno+0x8>)
 8002bca:	6818      	ldr	r0, [r3, #0]
 8002bcc:	4770      	bx	lr
 8002bce:	bf00      	nop
 8002bd0:	20000080 	.word	0x20000080

08002bd4 <__libc_init_array>:
 8002bd4:	b570      	push	{r4, r5, r6, lr}
 8002bd6:	2600      	movs	r6, #0
 8002bd8:	4d0c      	ldr	r5, [pc, #48]	; (8002c0c <__libc_init_array+0x38>)
 8002bda:	4c0d      	ldr	r4, [pc, #52]	; (8002c10 <__libc_init_array+0x3c>)
 8002bdc:	1b64      	subs	r4, r4, r5
 8002bde:	10a4      	asrs	r4, r4, #2
 8002be0:	42a6      	cmp	r6, r4
 8002be2:	d109      	bne.n	8002bf8 <__libc_init_array+0x24>
 8002be4:	f000 fc82 	bl	80034ec <_init>
 8002be8:	2600      	movs	r6, #0
 8002bea:	4d0a      	ldr	r5, [pc, #40]	; (8002c14 <__libc_init_array+0x40>)
 8002bec:	4c0a      	ldr	r4, [pc, #40]	; (8002c18 <__libc_init_array+0x44>)
 8002bee:	1b64      	subs	r4, r4, r5
 8002bf0:	10a4      	asrs	r4, r4, #2
 8002bf2:	42a6      	cmp	r6, r4
 8002bf4:	d105      	bne.n	8002c02 <__libc_init_array+0x2e>
 8002bf6:	bd70      	pop	{r4, r5, r6, pc}
 8002bf8:	f855 3b04 	ldr.w	r3, [r5], #4
 8002bfc:	4798      	blx	r3
 8002bfe:	3601      	adds	r6, #1
 8002c00:	e7ee      	b.n	8002be0 <__libc_init_array+0xc>
 8002c02:	f855 3b04 	ldr.w	r3, [r5], #4
 8002c06:	4798      	blx	r3
 8002c08:	3601      	adds	r6, #1
 8002c0a:	e7f2      	b.n	8002bf2 <__libc_init_array+0x1e>
 8002c0c:	080035ac 	.word	0x080035ac
 8002c10:	080035ac 	.word	0x080035ac
 8002c14:	080035ac 	.word	0x080035ac
 8002c18:	080035b0 	.word	0x080035b0

08002c1c <__retarget_lock_acquire_recursive>:
 8002c1c:	4770      	bx	lr

08002c1e <__retarget_lock_release_recursive>:
 8002c1e:	4770      	bx	lr

08002c20 <strcpy>:
 8002c20:	4603      	mov	r3, r0
 8002c22:	f811 2b01 	ldrb.w	r2, [r1], #1
 8002c26:	f803 2b01 	strb.w	r2, [r3], #1
 8002c2a:	2a00      	cmp	r2, #0
 8002c2c:	d1f9      	bne.n	8002c22 <strcpy+0x2>
 8002c2e:	4770      	bx	lr

08002c30 <_free_r>:
 8002c30:	b538      	push	{r3, r4, r5, lr}
 8002c32:	4605      	mov	r5, r0
 8002c34:	2900      	cmp	r1, #0
 8002c36:	d040      	beq.n	8002cba <_free_r+0x8a>
 8002c38:	f851 3c04 	ldr.w	r3, [r1, #-4]
 8002c3c:	1f0c      	subs	r4, r1, #4
 8002c3e:	2b00      	cmp	r3, #0
 8002c40:	bfb8      	it	lt
 8002c42:	18e4      	addlt	r4, r4, r3
 8002c44:	f000 f8dc 	bl	8002e00 <__malloc_lock>
 8002c48:	4a1c      	ldr	r2, [pc, #112]	; (8002cbc <_free_r+0x8c>)
 8002c4a:	6813      	ldr	r3, [r2, #0]
 8002c4c:	b933      	cbnz	r3, 8002c5c <_free_r+0x2c>
 8002c4e:	6063      	str	r3, [r4, #4]
 8002c50:	6014      	str	r4, [r2, #0]
 8002c52:	4628      	mov	r0, r5
 8002c54:	e8bd 4038 	ldmia.w	sp!, {r3, r4, r5, lr}
 8002c58:	f000 b8d8 	b.w	8002e0c <__malloc_unlock>
 8002c5c:	42a3      	cmp	r3, r4
 8002c5e:	d908      	bls.n	8002c72 <_free_r+0x42>
 8002c60:	6820      	ldr	r0, [r4, #0]
 8002c62:	1821      	adds	r1, r4, r0
 8002c64:	428b      	cmp	r3, r1
 8002c66:	bf01      	itttt	eq
 8002c68:	6819      	ldreq	r1, [r3, #0]
 8002c6a:	685b      	ldreq	r3, [r3, #4]
 8002c6c:	1809      	addeq	r1, r1, r0
 8002c6e:	6021      	streq	r1, [r4, #0]
 8002c70:	e7ed      	b.n	8002c4e <_free_r+0x1e>
 8002c72:	461a      	mov	r2, r3
 8002c74:	685b      	ldr	r3, [r3, #4]
 8002c76:	b10b      	cbz	r3, 8002c7c <_free_r+0x4c>
 8002c78:	42a3      	cmp	r3, r4
 8002c7a:	d9fa      	bls.n	8002c72 <_free_r+0x42>
 8002c7c:	6811      	ldr	r1, [r2, #0]
 8002c7e:	1850      	adds	r0, r2, r1
 8002c80:	42a0      	cmp	r0, r4
 8002c82:	d10b      	bne.n	8002c9c <_free_r+0x6c>
 8002c84:	6820      	ldr	r0, [r4, #0]
 8002c86:	4401      	add	r1, r0
 8002c88:	1850      	adds	r0, r2, r1
 8002c8a:	4283      	cmp	r3, r0
 8002c8c:	6011      	str	r1, [r2, #0]
 8002c8e:	d1e0      	bne.n	8002c52 <_free_r+0x22>
 8002c90:	6818      	ldr	r0, [r3, #0]
 8002c92:	685b      	ldr	r3, [r3, #4]
 8002c94:	4408      	add	r0, r1
 8002c96:	6010      	str	r0, [r2, #0]
 8002c98:	6053      	str	r3, [r2, #4]
 8002c9a:	e7da      	b.n	8002c52 <_free_r+0x22>
 8002c9c:	d902      	bls.n	8002ca4 <_free_r+0x74>
 8002c9e:	230c      	movs	r3, #12
 8002ca0:	602b      	str	r3, [r5, #0]
 8002ca2:	e7d6      	b.n	8002c52 <_free_r+0x22>
 8002ca4:	6820      	ldr	r0, [r4, #0]
 8002ca6:	1821      	adds	r1, r4, r0
 8002ca8:	428b      	cmp	r3, r1
 8002caa:	bf01      	itttt	eq
 8002cac:	6819      	ldreq	r1, [r3, #0]
 8002cae:	685b      	ldreq	r3, [r3, #4]
 8002cb0:	1809      	addeq	r1, r1, r0
 8002cb2:	6021      	streq	r1, [r4, #0]
 8002cb4:	6063      	str	r3, [r4, #4]
 8002cb6:	6054      	str	r4, [r2, #4]
 8002cb8:	e7cb      	b.n	8002c52 <_free_r+0x22>
 8002cba:	bd38      	pop	{r3, r4, r5, pc}
 8002cbc:	20000388 	.word	0x20000388

08002cc0 <sbrk_aligned>:
 8002cc0:	b570      	push	{r4, r5, r6, lr}
 8002cc2:	4e0e      	ldr	r6, [pc, #56]	; (8002cfc <sbrk_aligned+0x3c>)
 8002cc4:	460c      	mov	r4, r1
 8002cc6:	6831      	ldr	r1, [r6, #0]
 8002cc8:	4605      	mov	r5, r0
 8002cca:	b911      	cbnz	r1, 8002cd2 <sbrk_aligned+0x12>
 8002ccc:	f000 fbaa 	bl	8003424 <_sbrk_r>
 8002cd0:	6030      	str	r0, [r6, #0]
 8002cd2:	4621      	mov	r1, r4
 8002cd4:	4628      	mov	r0, r5
 8002cd6:	f000 fba5 	bl	8003424 <_sbrk_r>
 8002cda:	1c43      	adds	r3, r0, #1
 8002cdc:	d00a      	beq.n	8002cf4 <sbrk_aligned+0x34>
 8002cde:	1cc4      	adds	r4, r0, #3
 8002ce0:	f024 0403 	bic.w	r4, r4, #3
 8002ce4:	42a0      	cmp	r0, r4
 8002ce6:	d007      	beq.n	8002cf8 <sbrk_aligned+0x38>
 8002ce8:	1a21      	subs	r1, r4, r0
 8002cea:	4628      	mov	r0, r5
 8002cec:	f000 fb9a 	bl	8003424 <_sbrk_r>
 8002cf0:	3001      	adds	r0, #1
 8002cf2:	d101      	bne.n	8002cf8 <sbrk_aligned+0x38>
 8002cf4:	f04f 34ff 	mov.w	r4, #4294967295
 8002cf8:	4620      	mov	r0, r4
 8002cfa:	bd70      	pop	{r4, r5, r6, pc}
 8002cfc:	2000038c 	.word	0x2000038c

08002d00 <_malloc_r>:
 8002d00:	e92d 43f8 	stmdb	sp!, {r3, r4, r5, r6, r7, r8, r9, lr}
 8002d04:	1ccd      	adds	r5, r1, #3
 8002d06:	f025 0503 	bic.w	r5, r5, #3
 8002d0a:	3508      	adds	r5, #8
 8002d0c:	2d0c      	cmp	r5, #12
 8002d0e:	bf38      	it	cc
 8002d10:	250c      	movcc	r5, #12
 8002d12:	2d00      	cmp	r5, #0
 8002d14:	4607      	mov	r7, r0
 8002d16:	db01      	blt.n	8002d1c <_malloc_r+0x1c>
 8002d18:	42a9      	cmp	r1, r5
 8002d1a:	d905      	bls.n	8002d28 <_malloc_r+0x28>
 8002d1c:	230c      	movs	r3, #12
 8002d1e:	2600      	movs	r6, #0
 8002d20:	603b      	str	r3, [r7, #0]
 8002d22:	4630      	mov	r0, r6
 8002d24:	e8bd 83f8 	ldmia.w	sp!, {r3, r4, r5, r6, r7, r8, r9, pc}
 8002d28:	f8df 80d0 	ldr.w	r8, [pc, #208]	; 8002dfc <_malloc_r+0xfc>
 8002d2c:	f000 f868 	bl	8002e00 <__malloc_lock>
 8002d30:	f8d8 3000 	ldr.w	r3, [r8]
 8002d34:	461c      	mov	r4, r3
 8002d36:	bb5c      	cbnz	r4, 8002d90 <_malloc_r+0x90>
 8002d38:	4629      	mov	r1, r5
 8002d3a:	4638      	mov	r0, r7
 8002d3c:	f7ff ffc0 	bl	8002cc0 <sbrk_aligned>
 8002d40:	1c43      	adds	r3, r0, #1
 8002d42:	4604      	mov	r4, r0
 8002d44:	d155      	bne.n	8002df2 <_malloc_r+0xf2>
 8002d46:	f8d8 4000 	ldr.w	r4, [r8]
 8002d4a:	4626      	mov	r6, r4
 8002d4c:	2e00      	cmp	r6, #0
 8002d4e:	d145      	bne.n	8002ddc <_malloc_r+0xdc>
 8002d50:	2c00      	cmp	r4, #0
 8002d52:	d048      	beq.n	8002de6 <_malloc_r+0xe6>
 8002d54:	6823      	ldr	r3, [r4, #0]
 8002d56:	4631      	mov	r1, r6
 8002d58:	4638      	mov	r0, r7
 8002d5a:	eb04 0903 	add.w	r9, r4, r3
 8002d5e:	f000 fb61 	bl	8003424 <_sbrk_r>
 8002d62:	4581      	cmp	r9, r0
 8002d64:	d13f      	bne.n	8002de6 <_malloc_r+0xe6>
 8002d66:	6821      	ldr	r1, [r4, #0]
 8002d68:	4638      	mov	r0, r7
 8002d6a:	1a6d      	subs	r5, r5, r1
 8002d6c:	4629      	mov	r1, r5
 8002d6e:	f7ff ffa7 	bl	8002cc0 <sbrk_aligned>
 8002d72:	3001      	adds	r0, #1
 8002d74:	d037      	beq.n	8002de6 <_malloc_r+0xe6>
 8002d76:	6823      	ldr	r3, [r4, #0]
 8002d78:	442b      	add	r3, r5
 8002d7a:	6023      	str	r3, [r4, #0]
 8002d7c:	f8d8 3000 	ldr.w	r3, [r8]
 8002d80:	2b00      	cmp	r3, #0
 8002d82:	d038      	beq.n	8002df6 <_malloc_r+0xf6>
 8002d84:	685a      	ldr	r2, [r3, #4]
 8002d86:	42a2      	cmp	r2, r4
 8002d88:	d12b      	bne.n	8002de2 <_malloc_r+0xe2>
 8002d8a:	2200      	movs	r2, #0
 8002d8c:	605a      	str	r2, [r3, #4]
 8002d8e:	e00f      	b.n	8002db0 <_malloc_r+0xb0>
 8002d90:	6822      	ldr	r2, [r4, #0]
 8002d92:	1b52      	subs	r2, r2, r5
 8002d94:	d41f      	bmi.n	8002dd6 <_malloc_r+0xd6>
 8002d96:	2a0b      	cmp	r2, #11
 8002d98:	d917      	bls.n	8002dca <_malloc_r+0xca>
 8002d9a:	1961      	adds	r1, r4, r5
 8002d9c:	42a3      	cmp	r3, r4
 8002d9e:	6025      	str	r5, [r4, #0]
 8002da0:	bf18      	it	ne
 8002da2:	6059      	strne	r1, [r3, #4]
 8002da4:	6863      	ldr	r3, [r4, #4]
 8002da6:	bf08      	it	eq
 8002da8:	f8c8 1000 	streq.w	r1, [r8]
 8002dac:	5162      	str	r2, [r4, r5]
 8002dae:	604b      	str	r3, [r1, #4]
 8002db0:	4638      	mov	r0, r7
 8002db2:	f104 060b 	add.w	r6, r4, #11
 8002db6:	f000 f829 	bl	8002e0c <__malloc_unlock>
 8002dba:	f026 0607 	bic.w	r6, r6, #7
 8002dbe:	1d23      	adds	r3, r4, #4
 8002dc0:	1af2      	subs	r2, r6, r3
 8002dc2:	d0ae      	beq.n	8002d22 <_malloc_r+0x22>
 8002dc4:	1b9b      	subs	r3, r3, r6
 8002dc6:	50a3      	str	r3, [r4, r2]
 8002dc8:	e7ab      	b.n	8002d22 <_malloc_r+0x22>
 8002dca:	42a3      	cmp	r3, r4
 8002dcc:	6862      	ldr	r2, [r4, #4]
 8002dce:	d1dd      	bne.n	8002d8c <_malloc_r+0x8c>
 8002dd0:	f8c8 2000 	str.w	r2, [r8]
 8002dd4:	e7ec      	b.n	8002db0 <_malloc_r+0xb0>
 8002dd6:	4623      	mov	r3, r4
 8002dd8:	6864      	ldr	r4, [r4, #4]
 8002dda:	e7ac      	b.n	8002d36 <_malloc_r+0x36>
 8002ddc:	4634      	mov	r4, r6
 8002dde:	6876      	ldr	r6, [r6, #4]
 8002de0:	e7b4      	b.n	8002d4c <_malloc_r+0x4c>
 8002de2:	4613      	mov	r3, r2
 8002de4:	e7cc      	b.n	8002d80 <_malloc_r+0x80>
 8002de6:	230c      	movs	r3, #12
 8002de8:	4638      	mov	r0, r7
 8002dea:	603b      	str	r3, [r7, #0]
 8002dec:	f000 f80e 	bl	8002e0c <__malloc_unlock>
 8002df0:	e797      	b.n	8002d22 <_malloc_r+0x22>
 8002df2:	6025      	str	r5, [r4, #0]
 8002df4:	e7dc      	b.n	8002db0 <_malloc_r+0xb0>
 8002df6:	605b      	str	r3, [r3, #4]
 8002df8:	deff      	udf	#255	; 0xff
 8002dfa:	bf00      	nop
 8002dfc:	20000388 	.word	0x20000388

08002e00 <__malloc_lock>:
 8002e00:	4801      	ldr	r0, [pc, #4]	; (8002e08 <__malloc_lock+0x8>)
 8002e02:	f7ff bf0b 	b.w	8002c1c <__retarget_lock_acquire_recursive>
 8002e06:	bf00      	nop
 8002e08:	20000384 	.word	0x20000384

08002e0c <__malloc_unlock>:
 8002e0c:	4801      	ldr	r0, [pc, #4]	; (8002e14 <__malloc_unlock+0x8>)
 8002e0e:	f7ff bf06 	b.w	8002c1e <__retarget_lock_release_recursive>
 8002e12:	bf00      	nop
 8002e14:	20000384 	.word	0x20000384

08002e18 <__ssputs_r>:
 8002e18:	e92d 47f0 	stmdb	sp!, {r4, r5, r6, r7, r8, r9, sl, lr}
 8002e1c:	461f      	mov	r7, r3
 8002e1e:	688e      	ldr	r6, [r1, #8]
 8002e20:	4682      	mov	sl, r0
 8002e22:	42be      	cmp	r6, r7
 8002e24:	460c      	mov	r4, r1
 8002e26:	4690      	mov	r8, r2
 8002e28:	680b      	ldr	r3, [r1, #0]
 8002e2a:	d82c      	bhi.n	8002e86 <__ssputs_r+0x6e>
 8002e2c:	898a      	ldrh	r2, [r1, #12]
 8002e2e:	f412 6f90 	tst.w	r2, #1152	; 0x480
 8002e32:	d026      	beq.n	8002e82 <__ssputs_r+0x6a>
 8002e34:	6965      	ldr	r5, [r4, #20]
 8002e36:	6909      	ldr	r1, [r1, #16]
 8002e38:	eb05 0545 	add.w	r5, r5, r5, lsl #1
 8002e3c:	eba3 0901 	sub.w	r9, r3, r1
 8002e40:	eb05 75d5 	add.w	r5, r5, r5, lsr #31
 8002e44:	1c7b      	adds	r3, r7, #1
 8002e46:	444b      	add	r3, r9
 8002e48:	106d      	asrs	r5, r5, #1
 8002e4a:	429d      	cmp	r5, r3
 8002e4c:	bf38      	it	cc
 8002e4e:	461d      	movcc	r5, r3
 8002e50:	0553      	lsls	r3, r2, #21
 8002e52:	d527      	bpl.n	8002ea4 <__ssputs_r+0x8c>
 8002e54:	4629      	mov	r1, r5
 8002e56:	f7ff ff53 	bl	8002d00 <_malloc_r>
 8002e5a:	4606      	mov	r6, r0
 8002e5c:	b360      	cbz	r0, 8002eb8 <__ssputs_r+0xa0>
 8002e5e:	464a      	mov	r2, r9
 8002e60:	6921      	ldr	r1, [r4, #16]
 8002e62:	f000 fafd 	bl	8003460 <memcpy>
 8002e66:	89a3      	ldrh	r3, [r4, #12]
 8002e68:	f423 6390 	bic.w	r3, r3, #1152	; 0x480
 8002e6c:	f043 0380 	orr.w	r3, r3, #128	; 0x80
 8002e70:	81a3      	strh	r3, [r4, #12]
 8002e72:	6126      	str	r6, [r4, #16]
 8002e74:	444e      	add	r6, r9
 8002e76:	6026      	str	r6, [r4, #0]
 8002e78:	463e      	mov	r6, r7
 8002e7a:	6165      	str	r5, [r4, #20]
 8002e7c:	eba5 0509 	sub.w	r5, r5, r9
 8002e80:	60a5      	str	r5, [r4, #8]
 8002e82:	42be      	cmp	r6, r7
 8002e84:	d900      	bls.n	8002e88 <__ssputs_r+0x70>
 8002e86:	463e      	mov	r6, r7
 8002e88:	4632      	mov	r2, r6
 8002e8a:	4641      	mov	r1, r8
 8002e8c:	6820      	ldr	r0, [r4, #0]
 8002e8e:	f000 faaf 	bl	80033f0 <memmove>
 8002e92:	2000      	movs	r0, #0
 8002e94:	68a3      	ldr	r3, [r4, #8]
 8002e96:	1b9b      	subs	r3, r3, r6
 8002e98:	60a3      	str	r3, [r4, #8]
 8002e9a:	6823      	ldr	r3, [r4, #0]
 8002e9c:	4433      	add	r3, r6
 8002e9e:	6023      	str	r3, [r4, #0]
 8002ea0:	e8bd 87f0 	ldmia.w	sp!, {r4, r5, r6, r7, r8, r9, sl, pc}
 8002ea4:	462a      	mov	r2, r5
 8002ea6:	f000 fae9 	bl	800347c <_realloc_r>
 8002eaa:	4606      	mov	r6, r0
 8002eac:	2800      	cmp	r0, #0
 8002eae:	d1e0      	bne.n	8002e72 <__ssputs_r+0x5a>
 8002eb0:	4650      	mov	r0, sl
 8002eb2:	6921      	ldr	r1, [r4, #16]
 8002eb4:	f7ff febc 	bl	8002c30 <_free_r>
 8002eb8:	230c      	movs	r3, #12
 8002eba:	f8ca 3000 	str.w	r3, [sl]
 8002ebe:	89a3      	ldrh	r3, [r4, #12]
 8002ec0:	f04f 30ff 	mov.w	r0, #4294967295
 8002ec4:	f043 0340 	orr.w	r3, r3, #64	; 0x40
 8002ec8:	81a3      	strh	r3, [r4, #12]
 8002eca:	e7e9      	b.n	8002ea0 <__ssputs_r+0x88>

08002ecc <_svfiprintf_r>:
 8002ecc:	e92d 4ff0 	stmdb	sp!, {r4, r5, r6, r7, r8, r9, sl, fp, lr}
 8002ed0:	4698      	mov	r8, r3
 8002ed2:	898b      	ldrh	r3, [r1, #12]
 8002ed4:	4607      	mov	r7, r0
 8002ed6:	061b      	lsls	r3, r3, #24
 8002ed8:	460d      	mov	r5, r1
 8002eda:	4614      	mov	r4, r2
 8002edc:	b09d      	sub	sp, #116	; 0x74
 8002ede:	d50e      	bpl.n	8002efe <_svfiprintf_r+0x32>
 8002ee0:	690b      	ldr	r3, [r1, #16]
 8002ee2:	b963      	cbnz	r3, 8002efe <_svfiprintf_r+0x32>
 8002ee4:	2140      	movs	r1, #64	; 0x40
 8002ee6:	f7ff ff0b 	bl	8002d00 <_malloc_r>
 8002eea:	6028      	str	r0, [r5, #0]
 8002eec:	6128      	str	r0, [r5, #16]
 8002eee:	b920      	cbnz	r0, 8002efa <_svfiprintf_r+0x2e>
 8002ef0:	230c      	movs	r3, #12
 8002ef2:	603b      	str	r3, [r7, #0]
 8002ef4:	f04f 30ff 	mov.w	r0, #4294967295
 8002ef8:	e0d0      	b.n	800309c <_svfiprintf_r+0x1d0>
 8002efa:	2340      	movs	r3, #64	; 0x40
 8002efc:	616b      	str	r3, [r5, #20]
 8002efe:	2300      	movs	r3, #0
 8002f00:	9309      	str	r3, [sp, #36]	; 0x24
 8002f02:	2320      	movs	r3, #32
 8002f04:	f88d 3029 	strb.w	r3, [sp, #41]	; 0x29
 8002f08:	2330      	movs	r3, #48	; 0x30
 8002f0a:	f04f 0901 	mov.w	r9, #1
 8002f0e:	f8cd 800c 	str.w	r8, [sp, #12]
 8002f12:	f8df 81a0 	ldr.w	r8, [pc, #416]	; 80030b4 <_svfiprintf_r+0x1e8>
 8002f16:	f88d 302a 	strb.w	r3, [sp, #42]	; 0x2a
 8002f1a:	4623      	mov	r3, r4
 8002f1c:	469a      	mov	sl, r3
 8002f1e:	f813 2b01 	ldrb.w	r2, [r3], #1
 8002f22:	b10a      	cbz	r2, 8002f28 <_svfiprintf_r+0x5c>
 8002f24:	2a25      	cmp	r2, #37	; 0x25
 8002f26:	d1f9      	bne.n	8002f1c <_svfiprintf_r+0x50>
 8002f28:	ebba 0b04 	subs.w	fp, sl, r4
 8002f2c:	d00b      	beq.n	8002f46 <_svfiprintf_r+0x7a>
 8002f2e:	465b      	mov	r3, fp
 8002f30:	4622      	mov	r2, r4
 8002f32:	4629      	mov	r1, r5
 8002f34:	4638      	mov	r0, r7
 8002f36:	f7ff ff6f 	bl	8002e18 <__ssputs_r>
 8002f3a:	3001      	adds	r0, #1
 8002f3c:	f000 80a9 	beq.w	8003092 <_svfiprintf_r+0x1c6>
 8002f40:	9a09      	ldr	r2, [sp, #36]	; 0x24
 8002f42:	445a      	add	r2, fp
 8002f44:	9209      	str	r2, [sp, #36]	; 0x24
 8002f46:	f89a 3000 	ldrb.w	r3, [sl]
 8002f4a:	2b00      	cmp	r3, #0
 8002f4c:	f000 80a1 	beq.w	8003092 <_svfiprintf_r+0x1c6>
 8002f50:	2300      	movs	r3, #0
 8002f52:	f04f 32ff 	mov.w	r2, #4294967295
 8002f56:	e9cd 2305 	strd	r2, r3, [sp, #20]
 8002f5a:	f10a 0a01 	add.w	sl, sl, #1
 8002f5e:	9304      	str	r3, [sp, #16]
 8002f60:	9307      	str	r3, [sp, #28]
 8002f62:	f88d 3053 	strb.w	r3, [sp, #83]	; 0x53
 8002f66:	931a      	str	r3, [sp, #104]	; 0x68
 8002f68:	4654      	mov	r4, sl
 8002f6a:	2205      	movs	r2, #5
 8002f6c:	f814 1b01 	ldrb.w	r1, [r4], #1
 8002f70:	4850      	ldr	r0, [pc, #320]	; (80030b4 <_svfiprintf_r+0x1e8>)
 8002f72:	f000 fa67 	bl	8003444 <memchr>
 8002f76:	9a04      	ldr	r2, [sp, #16]
 8002f78:	b9d8      	cbnz	r0, 8002fb2 <_svfiprintf_r+0xe6>
 8002f7a:	06d0      	lsls	r0, r2, #27
 8002f7c:	bf44      	itt	mi
 8002f7e:	2320      	movmi	r3, #32
 8002f80:	f88d 3053 	strbmi.w	r3, [sp, #83]	; 0x53
 8002f84:	0711      	lsls	r1, r2, #28
 8002f86:	bf44      	itt	mi
 8002f88:	232b      	movmi	r3, #43	; 0x2b
 8002f8a:	f88d 3053 	strbmi.w	r3, [sp, #83]	; 0x53
 8002f8e:	f89a 3000 	ldrb.w	r3, [sl]
 8002f92:	2b2a      	cmp	r3, #42	; 0x2a
 8002f94:	d015      	beq.n	8002fc2 <_svfiprintf_r+0xf6>
 8002f96:	4654      	mov	r4, sl
 8002f98:	2000      	movs	r0, #0
 8002f9a:	f04f 0c0a 	mov.w	ip, #10
 8002f9e:	9a07      	ldr	r2, [sp, #28]
 8002fa0:	4621      	mov	r1, r4
 8002fa2:	f811 3b01 	ldrb.w	r3, [r1], #1
 8002fa6:	3b30      	subs	r3, #48	; 0x30
 8002fa8:	2b09      	cmp	r3, #9
 8002faa:	d94d      	bls.n	8003048 <_svfiprintf_r+0x17c>
 8002fac:	b1b0      	cbz	r0, 8002fdc <_svfiprintf_r+0x110>
 8002fae:	9207      	str	r2, [sp, #28]
 8002fb0:	e014      	b.n	8002fdc <_svfiprintf_r+0x110>
 8002fb2:	eba0 0308 	sub.w	r3, r0, r8
 8002fb6:	fa09 f303 	lsl.w	r3, r9, r3
 8002fba:	4313      	orrs	r3, r2
 8002fbc:	46a2      	mov	sl, r4
 8002fbe:	9304      	str	r3, [sp, #16]
 8002fc0:	e7d2      	b.n	8002f68 <_svfiprintf_r+0x9c>
 8002fc2:	9b03      	ldr	r3, [sp, #12]
 8002fc4:	1d19      	adds	r1, r3, #4
 8002fc6:	681b      	ldr	r3, [r3, #0]
 8002fc8:	9103      	str	r1, [sp, #12]
 8002fca:	2b00      	cmp	r3, #0
 8002fcc:	bfbb      	ittet	lt
 8002fce:	425b      	neglt	r3, r3
 8002fd0:	f042 0202 	orrlt.w	r2, r2, #2
 8002fd4:	9307      	strge	r3, [sp, #28]
 8002fd6:	9307      	strlt	r3, [sp, #28]
 8002fd8:	bfb8      	it	lt
 8002fda:	9204      	strlt	r2, [sp, #16]
 8002fdc:	7823      	ldrb	r3, [r4, #0]
 8002fde:	2b2e      	cmp	r3, #46	; 0x2e
 8002fe0:	d10c      	bne.n	8002ffc <_svfiprintf_r+0x130>
 8002fe2:	7863      	ldrb	r3, [r4, #1]
 8002fe4:	2b2a      	cmp	r3, #42	; 0x2a
 8002fe6:	d134      	bne.n	8003052 <_svfiprintf_r+0x186>
 8002fe8:	9b03      	ldr	r3, [sp, #12]
 8002fea:	3402      	adds	r4, #2
 8002fec:	1d1a      	adds	r2, r3, #4
 8002fee:	681b      	ldr	r3, [r3, #0]
 8002ff0:	9203      	str	r2, [sp, #12]
 8002ff2:	2b00      	cmp	r3, #0
 8002ff4:	bfb8      	it	lt
 8002ff6:	f04f 33ff 	movlt.w	r3, #4294967295
 8002ffa:	9305      	str	r3, [sp, #20]
 8002ffc:	f8df a0b8 	ldr.w	sl, [pc, #184]	; 80030b8 <_svfiprintf_r+0x1ec>
 8003000:	2203      	movs	r2, #3
 8003002:	4650      	mov	r0, sl
 8003004:	7821      	ldrb	r1, [r4, #0]
 8003006:	f000 fa1d 	bl	8003444 <memchr>
 800300a:	b138      	cbz	r0, 800301c <_svfiprintf_r+0x150>
 800300c:	2240      	movs	r2, #64	; 0x40
 800300e:	9b04      	ldr	r3, [sp, #16]
 8003010:	eba0 000a 	sub.w	r0, r0, sl
 8003014:	4082      	lsls	r2, r0
 8003016:	4313      	orrs	r3, r2
 8003018:	3401      	adds	r4, #1
 800301a:	9304      	str	r3, [sp, #16]
 800301c:	f814 1b01 	ldrb.w	r1, [r4], #1
 8003020:	2206      	movs	r2, #6
 8003022:	4826      	ldr	r0, [pc, #152]	; (80030bc <_svfiprintf_r+0x1f0>)
 8003024:	f88d 1028 	strb.w	r1, [sp, #40]	; 0x28
 8003028:	f000 fa0c 	bl	8003444 <memchr>
 800302c:	2800      	cmp	r0, #0
 800302e:	d038      	beq.n	80030a2 <_svfiprintf_r+0x1d6>
 8003030:	4b23      	ldr	r3, [pc, #140]	; (80030c0 <_svfiprintf_r+0x1f4>)
 8003032:	bb1b      	cbnz	r3, 800307c <_svfiprintf_r+0x1b0>
 8003034:	9b03      	ldr	r3, [sp, #12]
 8003036:	3307      	adds	r3, #7
 8003038:	f023 0307 	bic.w	r3, r3, #7
 800303c:	3308      	adds	r3, #8
 800303e:	9303      	str	r3, [sp, #12]
 8003040:	9b09      	ldr	r3, [sp, #36]	; 0x24
 8003042:	4433      	add	r3, r6
 8003044:	9309      	str	r3, [sp, #36]	; 0x24
 8003046:	e768      	b.n	8002f1a <_svfiprintf_r+0x4e>
 8003048:	460c      	mov	r4, r1
 800304a:	2001      	movs	r0, #1
 800304c:	fb0c 3202 	mla	r2, ip, r2, r3
 8003050:	e7a6      	b.n	8002fa0 <_svfiprintf_r+0xd4>
 8003052:	2300      	movs	r3, #0
 8003054:	f04f 0c0a 	mov.w	ip, #10
 8003058:	4619      	mov	r1, r3
 800305a:	3401      	adds	r4, #1
 800305c:	9305      	str	r3, [sp, #20]
 800305e:	4620      	mov	r0, r4
 8003060:	f810 2b01 	ldrb.w	r2, [r0], #1
 8003064:	3a30      	subs	r2, #48	; 0x30
 8003066:	2a09      	cmp	r2, #9
 8003068:	d903      	bls.n	8003072 <_svfiprintf_r+0x1a6>
 800306a:	2b00      	cmp	r3, #0
 800306c:	d0c6      	beq.n	8002ffc <_svfiprintf_r+0x130>
 800306e:	9105      	str	r1, [sp, #20]
 8003070:	e7c4      	b.n	8002ffc <_svfiprintf_r+0x130>
 8003072:	4604      	mov	r4, r0
 8003074:	2301      	movs	r3, #1
 8003076:	fb0c 2101 	mla	r1, ip, r1, r2
 800307a:	e7f0      	b.n	800305e <_svfiprintf_r+0x192>
 800307c:	ab03      	add	r3, sp, #12
 800307e:	9300      	str	r3, [sp, #0]
 8003080:	462a      	mov	r2, r5
 8003082:	4638      	mov	r0, r7
 8003084:	4b0f      	ldr	r3, [pc, #60]	; (80030c4 <_svfiprintf_r+0x1f8>)
 8003086:	a904      	add	r1, sp, #16
 8003088:	f3af 8000 	nop.w
 800308c:	1c42      	adds	r2, r0, #1
 800308e:	4606      	mov	r6, r0
 8003090:	d1d6      	bne.n	8003040 <_svfiprintf_r+0x174>
 8003092:	89ab      	ldrh	r3, [r5, #12]
 8003094:	065b      	lsls	r3, r3, #25
 8003096:	f53f af2d 	bmi.w	8002ef4 <_svfiprintf_r+0x28>
 800309a:	9809      	ldr	r0, [sp, #36]	; 0x24
 800309c:	b01d      	add	sp, #116	; 0x74
 800309e:	e8bd 8ff0 	ldmia.w	sp!, {r4, r5, r6, r7, r8, r9, sl, fp, pc}
 80030a2:	ab03      	add	r3, sp, #12
 80030a4:	9300      	str	r3, [sp, #0]
 80030a6:	462a      	mov	r2, r5
 80030a8:	4638      	mov	r0, r7
 80030aa:	4b06      	ldr	r3, [pc, #24]	; (80030c4 <_svfiprintf_r+0x1f8>)
 80030ac:	a904      	add	r1, sp, #16
 80030ae:	f000 f87d 	bl	80031ac <_printf_i>
 80030b2:	e7eb      	b.n	800308c <_svfiprintf_r+0x1c0>
 80030b4:	08003577 	.word	0x08003577
 80030b8:	0800357d 	.word	0x0800357d
 80030bc:	08003581 	.word	0x08003581
 80030c0:	00000000 	.word	0x00000000
 80030c4:	08002e19 	.word	0x08002e19

080030c8 <_printf_common>:
 80030c8:	e92d 47f0 	stmdb	sp!, {r4, r5, r6, r7, r8, r9, sl, lr}
 80030cc:	4616      	mov	r6, r2
 80030ce:	4699      	mov	r9, r3
 80030d0:	688a      	ldr	r2, [r1, #8]
 80030d2:	690b      	ldr	r3, [r1, #16]
 80030d4:	4607      	mov	r7, r0
 80030d6:	4293      	cmp	r3, r2
 80030d8:	bfb8      	it	lt
 80030da:	4613      	movlt	r3, r2
 80030dc:	6033      	str	r3, [r6, #0]
 80030de:	f891 2043 	ldrb.w	r2, [r1, #67]	; 0x43
 80030e2:	460c      	mov	r4, r1
 80030e4:	f8dd 8020 	ldr.w	r8, [sp, #32]
 80030e8:	b10a      	cbz	r2, 80030ee <_printf_common+0x26>
 80030ea:	3301      	adds	r3, #1
 80030ec:	6033      	str	r3, [r6, #0]
 80030ee:	6823      	ldr	r3, [r4, #0]
 80030f0:	0699      	lsls	r1, r3, #26
 80030f2:	bf42      	ittt	mi
 80030f4:	6833      	ldrmi	r3, [r6, #0]
 80030f6:	3302      	addmi	r3, #2
 80030f8:	6033      	strmi	r3, [r6, #0]
 80030fa:	6825      	ldr	r5, [r4, #0]
 80030fc:	f015 0506 	ands.w	r5, r5, #6
 8003100:	d106      	bne.n	8003110 <_printf_common+0x48>
 8003102:	f104 0a19 	add.w	sl, r4, #25
 8003106:	68e3      	ldr	r3, [r4, #12]
 8003108:	6832      	ldr	r2, [r6, #0]
 800310a:	1a9b      	subs	r3, r3, r2
 800310c:	42ab      	cmp	r3, r5
 800310e:	dc2b      	bgt.n	8003168 <_printf_common+0xa0>
 8003110:	f894 2043 	ldrb.w	r2, [r4, #67]	; 0x43
 8003114:	1e13      	subs	r3, r2, #0
 8003116:	6822      	ldr	r2, [r4, #0]
 8003118:	bf18      	it	ne
 800311a:	2301      	movne	r3, #1
 800311c:	0692      	lsls	r2, r2, #26
 800311e:	d430      	bmi.n	8003182 <_printf_common+0xba>
 8003120:	4649      	mov	r1, r9
 8003122:	4638      	mov	r0, r7
 8003124:	f104 0243 	add.w	r2, r4, #67	; 0x43
 8003128:	47c0      	blx	r8
 800312a:	3001      	adds	r0, #1
 800312c:	d023      	beq.n	8003176 <_printf_common+0xae>
 800312e:	6823      	ldr	r3, [r4, #0]
 8003130:	6922      	ldr	r2, [r4, #16]
 8003132:	f003 0306 	and.w	r3, r3, #6
 8003136:	2b04      	cmp	r3, #4
 8003138:	bf14      	ite	ne
 800313a:	2500      	movne	r5, #0
 800313c:	6833      	ldreq	r3, [r6, #0]
 800313e:	f04f 0600 	mov.w	r6, #0
 8003142:	bf08      	it	eq
 8003144:	68e5      	ldreq	r5, [r4, #12]
 8003146:	f104 041a 	add.w	r4, r4, #26
 800314a:	bf08      	it	eq
 800314c:	1aed      	subeq	r5, r5, r3
 800314e:	f854 3c12 	ldr.w	r3, [r4, #-18]
 8003152:	bf08      	it	eq
 8003154:	ea25 75e5 	biceq.w	r5, r5, r5, asr #31
 8003158:	4293      	cmp	r3, r2
 800315a:	bfc4      	itt	gt
 800315c:	1a9b      	subgt	r3, r3, r2
 800315e:	18ed      	addgt	r5, r5, r3
 8003160:	42b5      	cmp	r5, r6
 8003162:	d11a      	bne.n	800319a <_printf_common+0xd2>
 8003164:	2000      	movs	r0, #0
 8003166:	e008      	b.n	800317a <_printf_common+0xb2>
 8003168:	2301      	movs	r3, #1
 800316a:	4652      	mov	r2, sl
 800316c:	4649      	mov	r1, r9
 800316e:	4638      	mov	r0, r7
 8003170:	47c0      	blx	r8
 8003172:	3001      	adds	r0, #1
 8003174:	d103      	bne.n	800317e <_printf_common+0xb6>
 8003176:	f04f 30ff 	mov.w	r0, #4294967295
 800317a:	e8bd 87f0 	ldmia.w	sp!, {r4, r5, r6, r7, r8, r9, sl, pc}
 800317e:	3501      	adds	r5, #1
 8003180:	e7c1      	b.n	8003106 <_printf_common+0x3e>
 8003182:	2030      	movs	r0, #48	; 0x30
 8003184:	18e1      	adds	r1, r4, r3
 8003186:	f881 0043 	strb.w	r0, [r1, #67]	; 0x43
 800318a:	1c5a      	adds	r2, r3, #1
 800318c:	f894 1045 	ldrb.w	r1, [r4, #69]	; 0x45
 8003190:	4422      	add	r2, r4
 8003192:	3302      	adds	r3, #2
 8003194:	f882 1043 	strb.w	r1, [r2, #67]	; 0x43
 8003198:	e7c2      	b.n	8003120 <_printf_common+0x58>
 800319a:	2301      	movs	r3, #1
 800319c:	4622      	mov	r2, r4
 800319e:	4649      	mov	r1, r9
 80031a0:	4638      	mov	r0, r7
 80031a2:	47c0      	blx	r8
 80031a4:	3001      	adds	r0, #1
 80031a6:	d0e6      	beq.n	8003176 <_printf_common+0xae>
 80031a8:	3601      	adds	r6, #1
 80031aa:	e7d9      	b.n	8003160 <_printf_common+0x98>

080031ac <_printf_i>:
 80031ac:	e92d 47ff 	stmdb	sp!, {r0, r1, r2, r3, r4, r5, r6, r7, r8, r9, sl, lr}
 80031b0:	7e0f      	ldrb	r7, [r1, #24]
 80031b2:	4691      	mov	r9, r2
 80031b4:	2f78      	cmp	r7, #120	; 0x78
 80031b6:	4680      	mov	r8, r0
 80031b8:	460c      	mov	r4, r1
 80031ba:	469a      	mov	sl, r3
 80031bc:	9d0c      	ldr	r5, [sp, #48]	; 0x30
 80031be:	f101 0243 	add.w	r2, r1, #67	; 0x43
 80031c2:	d807      	bhi.n	80031d4 <_printf_i+0x28>
 80031c4:	2f62      	cmp	r7, #98	; 0x62
 80031c6:	d80a      	bhi.n	80031de <_printf_i+0x32>
 80031c8:	2f00      	cmp	r7, #0
 80031ca:	f000 80d5 	beq.w	8003378 <_printf_i+0x1cc>
 80031ce:	2f58      	cmp	r7, #88	; 0x58
 80031d0:	f000 80c1 	beq.w	8003356 <_printf_i+0x1aa>
 80031d4:	f104 0542 	add.w	r5, r4, #66	; 0x42
 80031d8:	f884 7042 	strb.w	r7, [r4, #66]	; 0x42
 80031dc:	e03a      	b.n	8003254 <_printf_i+0xa8>
 80031de:	f1a7 0363 	sub.w	r3, r7, #99	; 0x63
 80031e2:	2b15      	cmp	r3, #21
 80031e4:	d8f6      	bhi.n	80031d4 <_printf_i+0x28>
 80031e6:	a101      	add	r1, pc, #4	; (adr r1, 80031ec <_printf_i+0x40>)
 80031e8:	f851 f023 	ldr.w	pc, [r1, r3, lsl #2]
 80031ec:	08003245 	.word	0x08003245
 80031f0:	08003259 	.word	0x08003259
 80031f4:	080031d5 	.word	0x080031d5
 80031f8:	080031d5 	.word	0x080031d5
 80031fc:	080031d5 	.word	0x080031d5
 8003200:	080031d5 	.word	0x080031d5
 8003204:	08003259 	.word	0x08003259
 8003208:	080031d5 	.word	0x080031d5
 800320c:	080031d5 	.word	0x080031d5
 8003210:	080031d5 	.word	0x080031d5
 8003214:	080031d5 	.word	0x080031d5
 8003218:	0800335f 	.word	0x0800335f
 800321c:	08003285 	.word	0x08003285
 8003220:	08003319 	.word	0x08003319
 8003224:	080031d5 	.word	0x080031d5
 8003228:	080031d5 	.word	0x080031d5
 800322c:	08003381 	.word	0x08003381
 8003230:	080031d5 	.word	0x080031d5
 8003234:	08003285 	.word	0x08003285
 8003238:	080031d5 	.word	0x080031d5
 800323c:	080031d5 	.word	0x080031d5
 8003240:	08003321 	.word	0x08003321
 8003244:	682b      	ldr	r3, [r5, #0]
 8003246:	1d1a      	adds	r2, r3, #4
 8003248:	681b      	ldr	r3, [r3, #0]
 800324a:	602a      	str	r2, [r5, #0]
 800324c:	f104 0542 	add.w	r5, r4, #66	; 0x42
 8003250:	f884 3042 	strb.w	r3, [r4, #66]	; 0x42
 8003254:	2301      	movs	r3, #1
 8003256:	e0a0      	b.n	800339a <_printf_i+0x1ee>
 8003258:	6820      	ldr	r0, [r4, #0]
 800325a:	682b      	ldr	r3, [r5, #0]
 800325c:	0607      	lsls	r7, r0, #24
 800325e:	f103 0104 	add.w	r1, r3, #4
 8003262:	6029      	str	r1, [r5, #0]
 8003264:	d501      	bpl.n	800326a <_printf_i+0xbe>
 8003266:	681e      	ldr	r6, [r3, #0]
 8003268:	e003      	b.n	8003272 <_printf_i+0xc6>
 800326a:	0646      	lsls	r6, r0, #25
 800326c:	d5fb      	bpl.n	8003266 <_printf_i+0xba>
 800326e:	f9b3 6000 	ldrsh.w	r6, [r3]
 8003272:	2e00      	cmp	r6, #0
 8003274:	da03      	bge.n	800327e <_printf_i+0xd2>
 8003276:	232d      	movs	r3, #45	; 0x2d
 8003278:	4276      	negs	r6, r6
 800327a:	f884 3043 	strb.w	r3, [r4, #67]	; 0x43
 800327e:	230a      	movs	r3, #10
 8003280:	4859      	ldr	r0, [pc, #356]	; (80033e8 <_printf_i+0x23c>)
 8003282:	e012      	b.n	80032aa <_printf_i+0xfe>
 8003284:	682b      	ldr	r3, [r5, #0]
 8003286:	6820      	ldr	r0, [r4, #0]
 8003288:	1d19      	adds	r1, r3, #4
 800328a:	6029      	str	r1, [r5, #0]
 800328c:	0605      	lsls	r5, r0, #24
 800328e:	d501      	bpl.n	8003294 <_printf_i+0xe8>
 8003290:	681e      	ldr	r6, [r3, #0]
 8003292:	e002      	b.n	800329a <_printf_i+0xee>
 8003294:	0641      	lsls	r1, r0, #25
 8003296:	d5fb      	bpl.n	8003290 <_printf_i+0xe4>
 8003298:	881e      	ldrh	r6, [r3, #0]
 800329a:	2f6f      	cmp	r7, #111	; 0x6f
 800329c:	bf0c      	ite	eq
 800329e:	2308      	moveq	r3, #8
 80032a0:	230a      	movne	r3, #10
 80032a2:	4851      	ldr	r0, [pc, #324]	; (80033e8 <_printf_i+0x23c>)
 80032a4:	2100      	movs	r1, #0
 80032a6:	f884 1043 	strb.w	r1, [r4, #67]	; 0x43
 80032aa:	6865      	ldr	r5, [r4, #4]
 80032ac:	2d00      	cmp	r5, #0
 80032ae:	bfa8      	it	ge
 80032b0:	6821      	ldrge	r1, [r4, #0]
 80032b2:	60a5      	str	r5, [r4, #8]
 80032b4:	bfa4      	itt	ge
 80032b6:	f021 0104 	bicge.w	r1, r1, #4
 80032ba:	6021      	strge	r1, [r4, #0]
 80032bc:	b90e      	cbnz	r6, 80032c2 <_printf_i+0x116>
 80032be:	2d00      	cmp	r5, #0
 80032c0:	d04b      	beq.n	800335a <_printf_i+0x1ae>
 80032c2:	4615      	mov	r5, r2
 80032c4:	fbb6 f1f3 	udiv	r1, r6, r3
 80032c8:	fb03 6711 	mls	r7, r3, r1, r6
 80032cc:	5dc7      	ldrb	r7, [r0, r7]
 80032ce:	f805 7d01 	strb.w	r7, [r5, #-1]!
 80032d2:	4637      	mov	r7, r6
 80032d4:	42bb      	cmp	r3, r7
 80032d6:	460e      	mov	r6, r1
 80032d8:	d9f4      	bls.n	80032c4 <_printf_i+0x118>
 80032da:	2b08      	cmp	r3, #8
 80032dc:	d10b      	bne.n	80032f6 <_printf_i+0x14a>
 80032de:	6823      	ldr	r3, [r4, #0]
 80032e0:	07de      	lsls	r6, r3, #31
 80032e2:	d508      	bpl.n	80032f6 <_printf_i+0x14a>
 80032e4:	6923      	ldr	r3, [r4, #16]
 80032e6:	6861      	ldr	r1, [r4, #4]
 80032e8:	4299      	cmp	r1, r3
 80032ea:	bfde      	ittt	le
 80032ec:	2330      	movle	r3, #48	; 0x30
 80032ee:	f805 3c01 	strble.w	r3, [r5, #-1]
 80032f2:	f105 35ff 	addle.w	r5, r5, #4294967295
 80032f6:	1b52      	subs	r2, r2, r5
 80032f8:	6122      	str	r2, [r4, #16]
 80032fa:	464b      	mov	r3, r9
 80032fc:	4621      	mov	r1, r4
 80032fe:	4640      	mov	r0, r8
 8003300:	f8cd a000 	str.w	sl, [sp]
 8003304:	aa03      	add	r2, sp, #12
 8003306:	f7ff fedf 	bl	80030c8 <_printf_common>
 800330a:	3001      	adds	r0, #1
 800330c:	d14a      	bne.n	80033a4 <_printf_i+0x1f8>
 800330e:	f04f 30ff 	mov.w	r0, #4294967295
 8003312:	b004      	add	sp, #16
 8003314:	e8bd 87f0 	ldmia.w	sp!, {r4, r5, r6, r7, r8, r9, sl, pc}
 8003318:	6823      	ldr	r3, [r4, #0]
 800331a:	f043 0320 	orr.w	r3, r3, #32
 800331e:	6023      	str	r3, [r4, #0]
 8003320:	2778      	movs	r7, #120	; 0x78
 8003322:	4832      	ldr	r0, [pc, #200]	; (80033ec <_printf_i+0x240>)
 8003324:	f884 7045 	strb.w	r7, [r4, #69]	; 0x45
 8003328:	6823      	ldr	r3, [r4, #0]
 800332a:	6829      	ldr	r1, [r5, #0]
 800332c:	061f      	lsls	r7, r3, #24
 800332e:	f851 6b04 	ldr.w	r6, [r1], #4
 8003332:	d402      	bmi.n	800333a <_printf_i+0x18e>
 8003334:	065f      	lsls	r7, r3, #25
 8003336:	bf48      	it	mi
 8003338:	b2b6      	uxthmi	r6, r6
 800333a:	07df      	lsls	r7, r3, #31
 800333c:	bf48      	it	mi
 800333e:	f043 0320 	orrmi.w	r3, r3, #32
 8003342:	6029      	str	r1, [r5, #0]
 8003344:	bf48      	it	mi
 8003346:	6023      	strmi	r3, [r4, #0]
 8003348:	b91e      	cbnz	r6, 8003352 <_printf_i+0x1a6>
 800334a:	6823      	ldr	r3, [r4, #0]
 800334c:	f023 0320 	bic.w	r3, r3, #32
 8003350:	6023      	str	r3, [r4, #0]
 8003352:	2310      	movs	r3, #16
 8003354:	e7a6      	b.n	80032a4 <_printf_i+0xf8>
 8003356:	4824      	ldr	r0, [pc, #144]	; (80033e8 <_printf_i+0x23c>)
 8003358:	e7e4      	b.n	8003324 <_printf_i+0x178>
 800335a:	4615      	mov	r5, r2
 800335c:	e7bd      	b.n	80032da <_printf_i+0x12e>
 800335e:	682b      	ldr	r3, [r5, #0]
 8003360:	6826      	ldr	r6, [r4, #0]
 8003362:	1d18      	adds	r0, r3, #4
 8003364:	6961      	ldr	r1, [r4, #20]
 8003366:	6028      	str	r0, [r5, #0]
 8003368:	0635      	lsls	r5, r6, #24
 800336a:	681b      	ldr	r3, [r3, #0]
 800336c:	d501      	bpl.n	8003372 <_printf_i+0x1c6>
 800336e:	6019      	str	r1, [r3, #0]
 8003370:	e002      	b.n	8003378 <_printf_i+0x1cc>
 8003372:	0670      	lsls	r0, r6, #25
 8003374:	d5fb      	bpl.n	800336e <_printf_i+0x1c2>
 8003376:	8019      	strh	r1, [r3, #0]
 8003378:	2300      	movs	r3, #0
 800337a:	4615      	mov	r5, r2
 800337c:	6123      	str	r3, [r4, #16]
 800337e:	e7bc      	b.n	80032fa <_printf_i+0x14e>
 8003380:	682b      	ldr	r3, [r5, #0]
 8003382:	2100      	movs	r1, #0
 8003384:	1d1a      	adds	r2, r3, #4
 8003386:	602a      	str	r2, [r5, #0]
 8003388:	681d      	ldr	r5, [r3, #0]
 800338a:	6862      	ldr	r2, [r4, #4]
 800338c:	4628      	mov	r0, r5
 800338e:	f000 f859 	bl	8003444 <memchr>
 8003392:	b108      	cbz	r0, 8003398 <_printf_i+0x1ec>
 8003394:	1b40      	subs	r0, r0, r5
 8003396:	6060      	str	r0, [r4, #4]
 8003398:	6863      	ldr	r3, [r4, #4]
 800339a:	6123      	str	r3, [r4, #16]
 800339c:	2300      	movs	r3, #0
 800339e:	f884 3043 	strb.w	r3, [r4, #67]	; 0x43
 80033a2:	e7aa      	b.n	80032fa <_printf_i+0x14e>
 80033a4:	462a      	mov	r2, r5
 80033a6:	4649      	mov	r1, r9
 80033a8:	4640      	mov	r0, r8
 80033aa:	6923      	ldr	r3, [r4, #16]
 80033ac:	47d0      	blx	sl
 80033ae:	3001      	adds	r0, #1
 80033b0:	d0ad      	beq.n	800330e <_printf_i+0x162>
 80033b2:	6823      	ldr	r3, [r4, #0]
 80033b4:	079b      	lsls	r3, r3, #30
 80033b6:	d413      	bmi.n	80033e0 <_printf_i+0x234>
 80033b8:	68e0      	ldr	r0, [r4, #12]
 80033ba:	9b03      	ldr	r3, [sp, #12]
 80033bc:	4298      	cmp	r0, r3
 80033be:	bfb8      	it	lt
 80033c0:	4618      	movlt	r0, r3
 80033c2:	e7a6      	b.n	8003312 <_printf_i+0x166>
 80033c4:	2301      	movs	r3, #1
 80033c6:	4632      	mov	r2, r6
 80033c8:	4649      	mov	r1, r9
 80033ca:	4640      	mov	r0, r8
 80033cc:	47d0      	blx	sl
 80033ce:	3001      	adds	r0, #1
 80033d0:	d09d      	beq.n	800330e <_printf_i+0x162>
 80033d2:	3501      	adds	r5, #1
 80033d4:	68e3      	ldr	r3, [r4, #12]
 80033d6:	9903      	ldr	r1, [sp, #12]
 80033d8:	1a5b      	subs	r3, r3, r1
 80033da:	42ab      	cmp	r3, r5
 80033dc:	dcf2      	bgt.n	80033c4 <_printf_i+0x218>
 80033de:	e7eb      	b.n	80033b8 <_printf_i+0x20c>
 80033e0:	2500      	movs	r5, #0
 80033e2:	f104 0619 	add.w	r6, r4, #25
 80033e6:	e7f5      	b.n	80033d4 <_printf_i+0x228>
 80033e8:	08003588 	.word	0x08003588
 80033ec:	08003599 	.word	0x08003599

080033f0 <memmove>:
 80033f0:	4288      	cmp	r0, r1
 80033f2:	b510      	push	{r4, lr}
 80033f4:	eb01 0402 	add.w	r4, r1, r2
 80033f8:	d902      	bls.n	8003400 <memmove+0x10>
 80033fa:	4284      	cmp	r4, r0
 80033fc:	4623      	mov	r3, r4
 80033fe:	d807      	bhi.n	8003410 <memmove+0x20>
 8003400:	1e43      	subs	r3, r0, #1
 8003402:	42a1      	cmp	r1, r4
 8003404:	d008      	beq.n	8003418 <memmove+0x28>
 8003406:	f811 2b01 	ldrb.w	r2, [r1], #1
 800340a:	f803 2f01 	strb.w	r2, [r3, #1]!
 800340e:	e7f8      	b.n	8003402 <memmove+0x12>
 8003410:	4601      	mov	r1, r0
 8003412:	4402      	add	r2, r0
 8003414:	428a      	cmp	r2, r1
 8003416:	d100      	bne.n	800341a <memmove+0x2a>
 8003418:	bd10      	pop	{r4, pc}
 800341a:	f813 4d01 	ldrb.w	r4, [r3, #-1]!
 800341e:	f802 4d01 	strb.w	r4, [r2, #-1]!
 8003422:	e7f7      	b.n	8003414 <memmove+0x24>

08003424 <_sbrk_r>:
 8003424:	b538      	push	{r3, r4, r5, lr}
 8003426:	2300      	movs	r3, #0
 8003428:	4d05      	ldr	r5, [pc, #20]	; (8003440 <_sbrk_r+0x1c>)
 800342a:	4604      	mov	r4, r0
 800342c:	4608      	mov	r0, r1
 800342e:	602b      	str	r3, [r5, #0]
 8003430:	f7fd fdae 	bl	8000f90 <_sbrk>
 8003434:	1c43      	adds	r3, r0, #1
 8003436:	d102      	bne.n	800343e <_sbrk_r+0x1a>
 8003438:	682b      	ldr	r3, [r5, #0]
 800343a:	b103      	cbz	r3, 800343e <_sbrk_r+0x1a>
 800343c:	6023      	str	r3, [r4, #0]
 800343e:	bd38      	pop	{r3, r4, r5, pc}
 8003440:	20000380 	.word	0x20000380

08003444 <memchr>:
 8003444:	4603      	mov	r3, r0
 8003446:	b510      	push	{r4, lr}
 8003448:	b2c9      	uxtb	r1, r1
 800344a:	4402      	add	r2, r0
 800344c:	4293      	cmp	r3, r2
 800344e:	4618      	mov	r0, r3
 8003450:	d101      	bne.n	8003456 <memchr+0x12>
 8003452:	2000      	movs	r0, #0
 8003454:	e003      	b.n	800345e <memchr+0x1a>
 8003456:	7804      	ldrb	r4, [r0, #0]
 8003458:	3301      	adds	r3, #1
 800345a:	428c      	cmp	r4, r1
 800345c:	d1f6      	bne.n	800344c <memchr+0x8>
 800345e:	bd10      	pop	{r4, pc}

08003460 <memcpy>:
 8003460:	440a      	add	r2, r1
 8003462:	4291      	cmp	r1, r2
 8003464:	f100 33ff 	add.w	r3, r0, #4294967295
 8003468:	d100      	bne.n	800346c <memcpy+0xc>
 800346a:	4770      	bx	lr
 800346c:	b510      	push	{r4, lr}
 800346e:	f811 4b01 	ldrb.w	r4, [r1], #1
 8003472:	4291      	cmp	r1, r2
 8003474:	f803 4f01 	strb.w	r4, [r3, #1]!
 8003478:	d1f9      	bne.n	800346e <memcpy+0xe>
 800347a:	bd10      	pop	{r4, pc}

0800347c <_realloc_r>:
 800347c:	e92d 41f0 	stmdb	sp!, {r4, r5, r6, r7, r8, lr}
 8003480:	4680      	mov	r8, r0
 8003482:	4614      	mov	r4, r2
 8003484:	460e      	mov	r6, r1
 8003486:	b921      	cbnz	r1, 8003492 <_realloc_r+0x16>
 8003488:	4611      	mov	r1, r2
 800348a:	e8bd 41f0 	ldmia.w	sp!, {r4, r5, r6, r7, r8, lr}
 800348e:	f7ff bc37 	b.w	8002d00 <_malloc_r>
 8003492:	b92a      	cbnz	r2, 80034a0 <_realloc_r+0x24>
 8003494:	f7ff fbcc 	bl	8002c30 <_free_r>
 8003498:	4625      	mov	r5, r4
 800349a:	4628      	mov	r0, r5
 800349c:	e8bd 81f0 	ldmia.w	sp!, {r4, r5, r6, r7, r8, pc}
 80034a0:	f000 f81b 	bl	80034da <_malloc_usable_size_r>
 80034a4:	4284      	cmp	r4, r0
 80034a6:	4607      	mov	r7, r0
 80034a8:	d802      	bhi.n	80034b0 <_realloc_r+0x34>
 80034aa:	ebb4 0f50 	cmp.w	r4, r0, lsr #1
 80034ae:	d812      	bhi.n	80034d6 <_realloc_r+0x5a>
 80034b0:	4621      	mov	r1, r4
 80034b2:	4640      	mov	r0, r8
 80034b4:	f7ff fc24 	bl	8002d00 <_malloc_r>
 80034b8:	4605      	mov	r5, r0
 80034ba:	2800      	cmp	r0, #0
 80034bc:	d0ed      	beq.n	800349a <_realloc_r+0x1e>
 80034be:	42bc      	cmp	r4, r7
 80034c0:	4622      	mov	r2, r4
 80034c2:	4631      	mov	r1, r6
 80034c4:	bf28      	it	cs
 80034c6:	463a      	movcs	r2, r7
 80034c8:	f7ff ffca 	bl	8003460 <memcpy>
 80034cc:	4631      	mov	r1, r6
 80034ce:	4640      	mov	r0, r8
 80034d0:	f7ff fbae 	bl	8002c30 <_free_r>
 80034d4:	e7e1      	b.n	800349a <_realloc_r+0x1e>
 80034d6:	4635      	mov	r5, r6
 80034d8:	e7df      	b.n	800349a <_realloc_r+0x1e>

080034da <_malloc_usable_size_r>:
 80034da:	f851 3c04 	ldr.w	r3, [r1, #-4]
 80034de:	1f18      	subs	r0, r3, #4
 80034e0:	2b00      	cmp	r3, #0
 80034e2:	bfbc      	itt	lt
 80034e4:	580b      	ldrlt	r3, [r1, r0]
 80034e6:	18c0      	addlt	r0, r0, r3
 80034e8:	4770      	bx	lr
	...

080034ec <_init>:
 80034ec:	b5f8      	push	{r3, r4, r5, r6, r7, lr}
 80034ee:	bf00      	nop
 80034f0:	bcf8      	pop	{r3, r4, r5, r6, r7}
 80034f2:	bc08      	pop	{r3}
 80034f4:	469e      	mov	lr, r3
 80034f6:	4770      	bx	lr

080034f8 <_fini>:
 80034f8:	b5f8      	push	{r3, r4, r5, r6, r7, lr}
 80034fa:	bf00      	nop
 80034fc:	bcf8      	pop	{r3, r4, r5, r6, r7}
 80034fe:	bc08      	pop	{r3}
 8003500:	469e      	mov	lr, r3
 8003502:	4770      	bx	lr
